

Microchip MPLAB XC8 Assembler V2.32 build 20210201212658 
                                                                                               Tue Oct 05 00:13:07 2021

Microchip MPLAB XC8 C Compiler v2.32 (Free license) build 20210201212658 Og1 
     1                           	processor	18F4550
     2                           	fnconf	rparam,??,?,0
     3                           	pagewidth 120
     4                           	opt	flic
     5                           	psect	idataCOMRAM,global,class=CODE,delta=1,noexec
     6                           	psect	cinit,global,reloc=2,class=CODE,delta=1
     7                           	psect	bssCOMRAM,global,class=COMRAM,space=1,delta=1,lowdata,noexec
     8                           	psect	dataCOMRAM,global,class=COMRAM,space=1,delta=1,lowdata,noexec
     9                           	psect	cstackCOMRAM,global,class=COMRAM,space=1,delta=1,lowdata,noexec
    10                           	psect	text0,global,reloc=2,class=CODE,delta=1
    11                           	psect	text1,global,reloc=2,class=CODE,delta=1
    12                           	psect	text2,global,reloc=2,class=CODE,delta=1
    13                           	psect	text3,global,reloc=2,class=CODE,delta=1
    14                           	psect	text4,global,reloc=2,class=CODE,delta=1,group=1
    15                           	psect	text5,global,reloc=2,class=CODE,delta=1,group=1
    16                           	psect	text6,global,reloc=2,class=CODE,delta=1,group=1
    17                           	psect	text7,global,reloc=2,class=CODE,delta=1,group=1
    18                           	psect	text8,global,reloc=2,class=CODE,delta=1,group=1
    19                           	psect	text9,global,reloc=2,class=CODE,delta=1
    20                           	psect	text10,global,reloc=2,class=CODE,delta=1
    21                           	psect	text11,global,reloc=2,class=CODE,delta=1
    22                           	psect	intsave_regs,global,class=BIGRAM,space=1,delta=1,noexec
    23                           	psect	rparam,global,class=COMRAM,space=1,delta=1,noexec
    24                           	psect	idloc,global,abs,ovrld,class=IDLOC,space=5,delta=1,noexec
    25                           	psect	config,global,abs,ovrld,class=CONFIG,space=4,delta=1,noexec
    26  0000                     
    27                           ; Version 2.20
    28                           ; Generated 12/02/2020 GMT
    29                           ; 
    30                           ; Copyright © 2020, Microchip Technology Inc. and its subsidiaries ("Microchip")
    31                           ; All rights reserved.
    32                           ; 
    33                           ; This software is developed by Microchip Technology Inc. and its subsidiaries ("Microch
      +                          ip").
    34                           ; 
    35                           ; Redistribution and use in source and binary forms, with or without modification, are
    36                           ; permitted provided that the following conditions are met:
    37                           ; 
    38                           ;     1. Redistributions of source code must retain the above copyright notice, this lis
      +                          t of
    39                           ;        conditions and the following disclaimer.
    40                           ; 
    41                           ;     2. Redistributions in binary form must reproduce the above copyright notice, this 
      +                          list
    42                           ;        of conditions and the following disclaimer in the documentation and/or other
    43                           ;        materials provided with the distribution.
    44                           ; 
    45                           ;     3. Microchip's name may not be used to endorse or promote products derived from th
      +                          is
    46                           ;        software without specific prior written permission.
    47                           ; 
    48                           ; THIS SOFTWARE IS PROVIDED BY MICROCHIP "AS IS" AND ANY EXPRESS OR IMPLIED WARRANTIES,
    49                           ; INCLUDING, BUT NOT LIMITED TO, THE IMPLIED WARRANTIES OF MERCHANTABILITY AND FITNESS F
      +                          OR
    50                           ; PURPOSE ARE DISCLAIMED.  IN NO EVENT SHALL MICROCHIP BE LIABLE FOR ANY DIRECT, INDIREC
      +                          T,
    51                           ; INCIDENTAL, SPECIAL, EXEMPLARY, OR CONSEQUENTIAL DAMAGES (INCLUDING BUT NOT LIMITED TO
    52                           ; PROCUREMENT OF SUBSTITUTE GOODS OR SERVICES; LOSS OF USE, DATA OR PROFITS; OR BUSINESS
    53                           ; INTERRUPTION) HOWSOEVER CAUSED AND ON ANY THEORY OF LIABILITY, WHETHER IN CONTRACT, ST
      +                          RICT
    54                           ; LIABILITY, OR TORT (INCLUDING NEGLIGENCE OR OTHERWISE) ARISING IN ANY WAY OUT OF THE U
      +                          SE OF
    55                           ; THIS SOFTWARE, EVEN IF ADVISED OF THE POSSIBILITY OF SUCH DAMAGE.
    56                           ; 
    57                           ; 
    58                           ; Code-generator required, PIC18F4550 Definitions
    59                           ; 
    60                           ; SFR Addresses
    61  0000                     
    62                           	psect	idataCOMRAM
    63  006B82                     __pidataCOMRAM:
    64                           	callstack 0
    65                           
    66                           ;initializer for _distancia
    67  006B82  0000               	dw	0
    68  006B84  4000               	dw	16384
    69  0000                     _TMR0	set	4054
    70  0000                     _TRISA	set	3986
    71  0000                     _ADCON1	set	4033
    72  0000                     _T0CONbits	set	4053
    73  0000                     _INTCONbits	set	4082
    74  0000                     _PORTAbits	set	3968
    75  0000                     _LATDbits	set	3980
    76  0000                     _TRISDbits	set	3989
    77  0000                     _TRISD	set	3989
    78  0000                     _PORTD	set	3971
    79                           
    80                           ; #config settings
    81                           
    82                           	psect	cinit
    83  006BB8                     __pcinit:
    84                           	callstack 0
    85  006BB8                     start_initialization:
    86                           	callstack 0
    87  006BB8                     __initialization:
    88                           	callstack 0
    89                           
    90                           ; Initialize objects allocated to COMRAM (4 bytes)
    91                           ; load TBLPTR registers with __pidataCOMRAM
    92  006BB8  0E82               	movlw	low __pidataCOMRAM
    93  006BBA  6EF6               	movwf	tblptrl,c
    94  006BBC  0E6B               	movlw	high __pidataCOMRAM
    95  006BBE  6EF7               	movwf	tblptrh,c
    96  006BC0  0E00               	movlw	low (__pidataCOMRAM shr (0+16))
    97  006BC2  6EF8               	movwf	tblptru,c
    98  006BC4  EE00  F04B         	lfsr	0,__pdataCOMRAM
    99  006BC8  EE10 F004          	lfsr	1,4
   100  006BCC                     copy_data0:
   101  006BCC  0009               	tblrd		*+
   102  006BCE  CFF5 FFEE          	movff	tablat,postinc0
   103  006BD2  50E5               	movf	postdec1,w,c
   104  006BD4  50E1               	movf	fsr1l,w,c
   105  006BD6  E1FA               	bnz	copy_data0
   106                           
   107                           ; Clear objects allocated to COMRAM (14 bytes)
   108  006BD8  EE00  F03D         	lfsr	0,__pbssCOMRAM
   109  006BDC  0E0E               	movlw	14
   110  006BDE                     clear_0:
   111  006BDE  6AEE               	clrf	postinc0,c
   112  006BE0  06E8               	decf	wreg,f,c
   113  006BE2  E1FD               	bnz	clear_0
   114  006BE4                     end_of_initialization:
   115                           	callstack 0
   116  006BE4                     __end_of__initialization:
   117                           	callstack 0
   118  006BE4  0100               	movlb	0
   119  006BE6  EFCE  F035         	goto	_main	;jump to C main() function
   120                           
   121                           	psect	bssCOMRAM
   122  00003D                     __pbssCOMRAM:
   123                           	callstack 0
   124  00003D                     _buffer1:
   125                           	callstack 0
   126  00003D                     	ds	8
   127  000045                     _s:
   128                           	callstack 0
   129  000045                     	ds	2
   130  000047                     _b:
   131                           	callstack 0
   132  000047                     	ds	2
   133  000049                     _a:
   134                           	callstack 0
   135  000049                     	ds	2
   136                           
   137                           	psect	dataCOMRAM
   138  00004B                     __pdataCOMRAM:
   139                           	callstack 0
   140  00004B                     _distancia:
   141                           	callstack 0
   142  00004B                     	ds	4
   143                           
   144                           	psect	cstackCOMRAM
   145  000001                     __pcstackCOMRAM:
   146                           	callstack 0
   147  000001                     ?___fladd:
   148                           	callstack 0
   149  000001                     ?___xxtofl:
   150                           	callstack 0
   151  000001                     LCD_Comando@cmd:
   152                           	callstack 0
   153  000001                     ___fladd@b:
   154                           	callstack 0
   155  000001                     ___xxtofl@val:
   156                           	callstack 0
   157                           
   158                           ; 4 bytes @ 0x0
   159  000001                     	ds	1
   160  000002                     ??_LCD_Init:
   161                           
   162                           ; 1 bytes @ 0x1
   163  000002                     	ds	3
   164  000005                     ??___xxtofl:
   165  000005                     ___fladd@a:
   166                           	callstack 0
   167                           
   168                           ; 4 bytes @ 0x4
   169  000005                     	ds	4
   170  000009                     ??___fladd:
   171  000009                     ___xxtofl@sign:
   172                           	callstack 0
   173                           
   174                           ; 1 bytes @ 0x8
   175  000009                     	ds	1
   176  00000A                     ___xxtofl@exp:
   177                           	callstack 0
   178                           
   179                           ; 1 bytes @ 0x9
   180  00000A                     	ds	1
   181  00000B                     ___xxtofl@arg:
   182                           	callstack 0
   183                           
   184                           ; 4 bytes @ 0xA
   185  00000B                     	ds	2
   186  00000D                     ___fladd@signs:
   187                           	callstack 0
   188                           
   189                           ; 1 bytes @ 0xC
   190  00000D                     	ds	1
   191  00000E                     ___fladd@aexp:
   192                           	callstack 0
   193                           
   194                           ; 1 bytes @ 0xD
   195  00000E                     	ds	1
   196  00000F                     ?___fldiv:
   197                           	callstack 0
   198  00000F                     ___fladd@bexp:
   199                           	callstack 0
   200  00000F                     ___fldiv@b:
   201                           	callstack 0
   202                           
   203                           ; 4 bytes @ 0xE
   204  00000F                     	ds	1
   205  000010                     ___fladd@grs:
   206                           	callstack 0
   207                           
   208                           ; 1 bytes @ 0xF
   209  000010                     	ds	3
   210  000013                     ___fldiv@a:
   211                           	callstack 0
   212                           
   213                           ; 4 bytes @ 0x12
   214  000013                     	ds	4
   215  000017                     ??___fldiv:
   216                           
   217                           ; 1 bytes @ 0x16
   218  000017                     	ds	4
   219  00001B                     ___fldiv@rem:
   220                           	callstack 0
   221                           
   222                           ; 4 bytes @ 0x1A
   223  00001B                     	ds	4
   224  00001F                     ___fldiv@sign:
   225                           	callstack 0
   226                           
   227                           ; 1 bytes @ 0x1E
   228  00001F                     	ds	1
   229  000020                     ___fldiv@new_exp:
   230                           	callstack 0
   231                           
   232                           ; 2 bytes @ 0x1F
   233  000020                     	ds	2
   234  000022                     ___fldiv@grs:
   235                           	callstack 0
   236                           
   237                           ; 4 bytes @ 0x21
   238  000022                     	ds	4
   239  000026                     ___fldiv@bexp:
   240                           	callstack 0
   241                           
   242                           ; 1 bytes @ 0x25
   243  000026                     	ds	1
   244  000027                     ___fldiv@aexp:
   245                           	callstack 0
   246                           
   247                           ; 1 bytes @ 0x26
   248  000027                     	ds	1
   249  000028                     ?___flsub:
   250                           	callstack 0
   251  000028                     ?___fltol:
   252                           	callstack 0
   253  000028                     ___fltol@f1:
   254                           	callstack 0
   255  000028                     ___flsub@b:
   256                           	callstack 0
   257                           
   258                           ; 4 bytes @ 0x27
   259  000028                     	ds	4
   260  00002C                     ??___fltol:
   261  00002C                     ___flsub@a:
   262                           	callstack 0
   263                           
   264                           ; 4 bytes @ 0x2B
   265  00002C                     	ds	4
   266  000030                     ___fltol@sign1:
   267                           	callstack 0
   268                           
   269                           ; 1 bytes @ 0x2F
   270  000030                     	ds	1
   271  000031                     ___fltol@exp1:
   272                           	callstack 0
   273                           
   274                           ; 1 bytes @ 0x30
   275  000031                     	ds	1
   276  000032                     tocar_nota@duracion:
   277                           	callstack 0
   278  000032                     silencio@duracion:
   279                           	callstack 0
   280                           
   281                           ; 2 bytes @ 0x31
   282  000032                     	ds	2
   283  000034                     tocar_nota@tfrec:
   284                           	callstack 0
   285  000034                     silencio@tfrec:
   286                           	callstack 0
   287                           
   288                           ; 4 bytes @ 0x33
   289  000034                     	ds	4
   290  000038                     ??_tocar_nota:
   291  000038                     ??_silencio:
   292                           
   293                           ; 1 bytes @ 0x37
   294  000038                     	ds	1
   295  000039                     _tocar_nota$954:
   296                           	callstack 0
   297  000039                     _silencio$955:
   298                           	callstack 0
   299                           
   300                           ; 4 bytes @ 0x38
   301  000039                     	ds	4
   302  00003D                     
   303                           ; 1 bytes @ 0x3C
   304 ;;
   305 ;;Main: autosize = 0, tempsize = 0, incstack = 0, save=0
   306 ;;
   307 ;; *************** function _main *****************
   308 ;; Defined at:
   309 ;;		line 141 in file "main.c"
   310 ;; Parameters:    Size  Location     Type
   311 ;;		None
   312 ;; Auto vars:     Size  Location     Type
   313 ;;		None
   314 ;; Return value:  Size  Location     Type
   315 ;;                  1    wreg      void 
   316 ;; Registers used:
   317 ;;		wreg, status,2, status,0, cstack
   318 ;; Tracked objects:
   319 ;;		On entry : 0/0
   320 ;;		On exit  : 0/0
   321 ;;		Unchanged: 0/0
   322 ;; Data sizes:     COMRAM   BANK0   BANK1   BANK2   BANK3   BANK4   BANK5   BANK6   BANK7
   323 ;;      Params:         0       0       0       0       0       0       0       0       0
   324 ;;      Locals:         0       0       0       0       0       0       0       0       0
   325 ;;      Temps:          0       0       0       0       0       0       0       0       0
   326 ;;      Totals:         0       0       0       0       0       0       0       0       0
   327 ;;Total ram usage:        0 bytes
   328 ;; Hardware stack levels required when called: 4
   329 ;; This function calls:
   330 ;;		_LCD_Init
   331 ;;		_confT0
   332 ;;		_sw
   333 ;; This function is called by:
   334 ;;		Startup code after reset
   335 ;; This function uses a non-reentrant model
   336 ;;
   337                           
   338                           	psect	text0
   339  006B9C                     __ptext0:
   340                           	callstack 0
   341  006B9C                     _main:
   342                           	callstack 27
   343  006B9C                     
   344                           ;main.c: 143:     ADCON1 = 15;
   345  006B9C  0E0F               	movlw	15
   346  006B9E  6EC1               	movwf	193,c	;volatile
   347                           
   348                           ;main.c: 145:     TRISA = 0b00010000;
   349  006BA0  0E10               	movlw	16
   350  006BA2  6E92               	movwf	146,c	;volatile
   351  006BA4                     
   352                           ;main.c: 147:     LCD_Init();
   353  006BA4  EC40  F036         	call	_LCD_Init	;wreg free
   354  006BA8                     
   355                           ;main.c: 148:     confT0();
   356  006BA8  ECC3  F035         	call	_confT0	;wreg free
   357  006BAC                     l1850:
   358                           
   359                           ;main.c: 152:       sw();
   360  006BAC  EC97  F03D         	call	_sw	;wreg free
   361  006BB0  EFD6  F035         	goto	l1850
   362  006BB4  EF00  F000         	goto	start
   363  006BB8                     __end_of_main:
   364                           	callstack 0
   365                           
   366 ;; *************** function _sw *****************
   367 ;; Defined at:
   368 ;;		line 72 in file "main.c"
   369 ;; Parameters:    Size  Location     Type
   370 ;;		None
   371 ;; Auto vars:     Size  Location     Type
   372 ;;		None
   373 ;; Return value:  Size  Location     Type
   374 ;;                  1    wreg      void 
   375 ;; Registers used:
   376 ;;		wreg, status,2, status,0, cstack
   377 ;; Tracked objects:
   378 ;;		On entry : 0/0
   379 ;;		On exit  : 0/0
   380 ;;		Unchanged: 0/0
   381 ;; Data sizes:     COMRAM   BANK0   BANK1   BANK2   BANK3   BANK4   BANK5   BANK6   BANK7
   382 ;;      Params:         0       0       0       0       0       0       0       0       0
   383 ;;      Locals:         0       0       0       0       0       0       0       0       0
   384 ;;      Temps:          0       0       0       0       0       0       0       0       0
   385 ;;      Totals:         0       0       0       0       0       0       0       0       0
   386 ;;Total ram usage:        0 bytes
   387 ;; Hardware stack levels used: 1
   388 ;; Hardware stack levels required when called: 3
   389 ;; This function calls:
   390 ;;		_silencio
   391 ;;		_tocar_nota
   392 ;; This function is called by:
   393 ;;		_main
   394 ;; This function uses a non-reentrant model
   395 ;;
   396                           
   397                           	psect	text1
   398  007B2E                     __ptext1:
   399                           	callstack 0
   400  007B2E                     _sw:
   401                           	callstack 27
   402  007B2E                     
   403                           ;main.c: 73:         tocar_nota(500,3.034);
   404  007B2E  0E01               	movlw	1
   405  007B30  6E33               	movwf	(tocar_nota@duracion+1)^0,c
   406  007B32  0EF4               	movlw	244
   407  007B34  6E32               	movwf	tocar_nota@duracion^0,c
   408  007B36  0E0E               	movlw	14
   409  007B38  6E34               	movwf	tocar_nota@tfrec^0,c
   410  007B3A  0E2D               	movlw	45
   411  007B3C  6E35               	movwf	(tocar_nota@tfrec+1)^0,c
   412  007B3E  0E42               	movlw	66
   413  007B40  6E36               	movwf	(tocar_nota@tfrec+2)^0,c
   414  007B42  0E40               	movlw	64
   415  007B44  6E37               	movwf	(tocar_nota@tfrec+3)^0,c
   416  007B46  ECD8  F037         	call	_tocar_nota	;wreg free
   417                           
   418                           ;main.c: 74:       tocar_nota(500,3.034);
   419  007B4A  0E01               	movlw	1
   420  007B4C  6E33               	movwf	(tocar_nota@duracion+1)^0,c
   421  007B4E  0EF4               	movlw	244
   422  007B50  6E32               	movwf	tocar_nota@duracion^0,c
   423  007B52  0E0E               	movlw	14
   424  007B54  6E34               	movwf	tocar_nota@tfrec^0,c
   425  007B56  0E2D               	movlw	45
   426  007B58  6E35               	movwf	(tocar_nota@tfrec+1)^0,c
   427  007B5A  0E42               	movlw	66
   428  007B5C  6E36               	movwf	(tocar_nota@tfrec+2)^0,c
   429  007B5E  0E40               	movlw	64
   430  007B60  6E37               	movwf	(tocar_nota@tfrec+3)^0,c
   431  007B62  ECD8  F037         	call	_tocar_nota	;wreg free
   432                           
   433                           ;main.c: 75:       tocar_nota(500,3.034);
   434  007B66  0E01               	movlw	1
   435  007B68  6E33               	movwf	(tocar_nota@duracion+1)^0,c
   436  007B6A  0EF4               	movlw	244
   437  007B6C  6E32               	movwf	tocar_nota@duracion^0,c
   438  007B6E  0E0E               	movlw	14
   439  007B70  6E34               	movwf	tocar_nota@tfrec^0,c
   440  007B72  0E2D               	movlw	45
   441  007B74  6E35               	movwf	(tocar_nota@tfrec+1)^0,c
   442  007B76  0E42               	movlw	66
   443  007B78  6E36               	movwf	(tocar_nota@tfrec+2)^0,c
   444  007B7A  0E40               	movlw	64
   445  007B7C  6E37               	movwf	(tocar_nota@tfrec+3)^0,c
   446  007B7E  ECD8  F037         	call	_tocar_nota	;wreg free
   447                           
   448                           ;main.c: 77:        tocar_nota(375,3.82);
   449  007B82  0E01               	movlw	1
   450  007B84  6E33               	movwf	(tocar_nota@duracion+1)^0,c
   451  007B86  0E77               	movlw	119
   452  007B88  6E32               	movwf	tocar_nota@duracion^0,c
   453  007B8A  0EE1               	movlw	225
   454  007B8C  6E34               	movwf	tocar_nota@tfrec^0,c
   455  007B8E  0E7A               	movlw	122
   456  007B90  6E35               	movwf	(tocar_nota@tfrec+1)^0,c
   457  007B92  0E74               	movlw	116
   458  007B94  6E36               	movwf	(tocar_nota@tfrec+2)^0,c
   459  007B96  0E40               	movlw	64
   460  007B98  6E37               	movwf	(tocar_nota@tfrec+3)^0,c
   461  007B9A  ECD8  F037         	call	_tocar_nota	;wreg free
   462                           
   463                           ;main.c: 78:         tocar_nota(125,2.551);
   464  007B9E  0E00               	movlw	0
   465  007BA0  6E33               	movwf	(tocar_nota@duracion+1)^0,c
   466  007BA2  0E7D               	movlw	125
   467  007BA4  6E32               	movwf	tocar_nota@duracion^0,c
   468  007BA6  0E96               	movlw	150
   469  007BA8  6E34               	movwf	tocar_nota@tfrec^0,c
   470  007BAA  0E43               	movlw	67
   471  007BAC  6E35               	movwf	(tocar_nota@tfrec+1)^0,c
   472  007BAE  0E23               	movlw	35
   473  007BB0  6E36               	movwf	(tocar_nota@tfrec+2)^0,c
   474  007BB2  0E40               	movlw	64
   475  007BB4  6E37               	movwf	(tocar_nota@tfrec+3)^0,c
   476  007BB6  ECD8  F037         	call	_tocar_nota	;wreg free
   477                           
   478                           ;main.c: 80:         tocar_nota(500,3.034);
   479  007BBA  0E01               	movlw	1
   480  007BBC  6E33               	movwf	(tocar_nota@duracion+1)^0,c
   481  007BBE  0EF4               	movlw	244
   482  007BC0  6E32               	movwf	tocar_nota@duracion^0,c
   483  007BC2  0E0E               	movlw	14
   484  007BC4  6E34               	movwf	tocar_nota@tfrec^0,c
   485  007BC6  0E2D               	movlw	45
   486  007BC8  6E35               	movwf	(tocar_nota@tfrec+1)^0,c
   487  007BCA  0E42               	movlw	66
   488  007BCC  6E36               	movwf	(tocar_nota@tfrec+2)^0,c
   489  007BCE  0E40               	movlw	64
   490  007BD0  6E37               	movwf	(tocar_nota@tfrec+3)^0,c
   491  007BD2  ECD8  F037         	call	_tocar_nota	;wreg free
   492                           
   493                           ;main.c: 82:        tocar_nota(375,3.82);
   494  007BD6  0E01               	movlw	1
   495  007BD8  6E33               	movwf	(tocar_nota@duracion+1)^0,c
   496  007BDA  0E77               	movlw	119
   497  007BDC  6E32               	movwf	tocar_nota@duracion^0,c
   498  007BDE  0EE1               	movlw	225
   499  007BE0  6E34               	movwf	tocar_nota@tfrec^0,c
   500  007BE2  0E7A               	movlw	122
   501  007BE4  6E35               	movwf	(tocar_nota@tfrec+1)^0,c
   502  007BE6  0E74               	movlw	116
   503  007BE8  6E36               	movwf	(tocar_nota@tfrec+2)^0,c
   504  007BEA  0E40               	movlw	64
   505  007BEC  6E37               	movwf	(tocar_nota@tfrec+3)^0,c
   506  007BEE  ECD8  F037         	call	_tocar_nota	;wreg free
   507                           
   508                           ;main.c: 83:         tocar_nota(125,2.551);
   509  007BF2  0E00               	movlw	0
   510  007BF4  6E33               	movwf	(tocar_nota@duracion+1)^0,c
   511  007BF6  0E7D               	movlw	125
   512  007BF8  6E32               	movwf	tocar_nota@duracion^0,c
   513  007BFA  0E96               	movlw	150
   514  007BFC  6E34               	movwf	tocar_nota@tfrec^0,c
   515  007BFE  0E43               	movlw	67
   516  007C00  6E35               	movwf	(tocar_nota@tfrec+1)^0,c
   517  007C02  0E23               	movlw	35
   518  007C04  6E36               	movwf	(tocar_nota@tfrec+2)^0,c
   519  007C06  0E40               	movlw	64
   520  007C08  6E37               	movwf	(tocar_nota@tfrec+3)^0,c
   521  007C0A  ECD8  F037         	call	_tocar_nota	;wreg free
   522                           
   523                           ;main.c: 85:         tocar_nota(1000,3.034);
   524  007C0E  0E03               	movlw	3
   525  007C10  6E33               	movwf	(tocar_nota@duracion+1)^0,c
   526  007C12  0EE8               	movlw	232
   527  007C14  6E32               	movwf	tocar_nota@duracion^0,c
   528  007C16  0E0E               	movlw	14
   529  007C18  6E34               	movwf	tocar_nota@tfrec^0,c
   530  007C1A  0E2D               	movlw	45
   531  007C1C  6E35               	movwf	(tocar_nota@tfrec+1)^0,c
   532  007C1E  0E42               	movlw	66
   533  007C20  6E36               	movwf	(tocar_nota@tfrec+2)^0,c
   534  007C22  0E40               	movlw	64
   535  007C24  6E37               	movwf	(tocar_nota@tfrec+3)^0,c
   536  007C26  ECD8  F037         	call	_tocar_nota	;wreg free
   537                           
   538                           ;main.c: 87:         tocar_nota(500,2.028);
   539  007C2A  0E01               	movlw	1
   540  007C2C  6E33               	movwf	(tocar_nota@duracion+1)^0,c
   541  007C2E  0EF4               	movlw	244
   542  007C30  6E32               	movwf	tocar_nota@duracion^0,c
   543  007C32  0EC1               	movlw	193
   544  007C34  6E34               	movwf	tocar_nota@tfrec^0,c
   545  007C36  0ECA               	movlw	202
   546  007C38  6E35               	movwf	(tocar_nota@tfrec+1)^0,c
   547  007C3A  0E01               	movlw	1
   548  007C3C  6E36               	movwf	(tocar_nota@tfrec+2)^0,c
   549  007C3E  0E40               	movlw	64
   550  007C40  6E37               	movwf	(tocar_nota@tfrec+3)^0,c
   551  007C42  ECD8  F037         	call	_tocar_nota	;wreg free
   552                           
   553                           ;main.c: 88:         tocar_nota(500,2.028);
   554  007C46  0E01               	movlw	1
   555  007C48  6E33               	movwf	(tocar_nota@duracion+1)^0,c
   556  007C4A  0EF4               	movlw	244
   557  007C4C  6E32               	movwf	tocar_nota@duracion^0,c
   558  007C4E  0EC1               	movlw	193
   559  007C50  6E34               	movwf	tocar_nota@tfrec^0,c
   560  007C52  0ECA               	movlw	202
   561  007C54  6E35               	movwf	(tocar_nota@tfrec+1)^0,c
   562  007C56  0E01               	movlw	1
   563  007C58  6E36               	movwf	(tocar_nota@tfrec+2)^0,c
   564  007C5A  0E40               	movlw	64
   565  007C5C  6E37               	movwf	(tocar_nota@tfrec+3)^0,c
   566  007C5E  ECD8  F037         	call	_tocar_nota	;wreg free
   567                           
   568                           ;main.c: 89:         tocar_nota(500,2.028);
   569  007C62  0E01               	movlw	1
   570  007C64  6E33               	movwf	(tocar_nota@duracion+1)^0,c
   571  007C66  0EF4               	movlw	244
   572  007C68  6E32               	movwf	tocar_nota@duracion^0,c
   573  007C6A  0EC1               	movlw	193
   574  007C6C  6E34               	movwf	tocar_nota@tfrec^0,c
   575  007C6E  0ECA               	movlw	202
   576  007C70  6E35               	movwf	(tocar_nota@tfrec+1)^0,c
   577  007C72  0E01               	movlw	1
   578  007C74  6E36               	movwf	(tocar_nota@tfrec+2)^0,c
   579  007C76  0E40               	movlw	64
   580  007C78  6E37               	movwf	(tocar_nota@tfrec+3)^0,c
   581  007C7A  ECD8  F037         	call	_tocar_nota	;wreg free
   582                           
   583                           ;main.c: 91:         tocar_nota(375,1.911);
   584  007C7E  0E01               	movlw	1
   585  007C80  6E33               	movwf	(tocar_nota@duracion+1)^0,c
   586  007C82  0E77               	movlw	119
   587  007C84  6E32               	movwf	tocar_nota@duracion^0,c
   588  007C86  0EA6               	movlw	166
   589  007C88  6E34               	movwf	tocar_nota@tfrec^0,c
   590  007C8A  0E9B               	movlw	155
   591  007C8C  6E35               	movwf	(tocar_nota@tfrec+1)^0,c
   592  007C8E  0EF4               	movlw	244
   593  007C90  6E36               	movwf	(tocar_nota@tfrec+2)^0,c
   594  007C92  0E3F               	movlw	63
   595  007C94  6E37               	movwf	(tocar_nota@tfrec+3)^0,c
   596  007C96  ECD8  F037         	call	_tocar_nota	;wreg free
   597                           
   598                           ;main.c: 92:         tocar_nota(125,2.551);
   599  007C9A  0E00               	movlw	0
   600  007C9C  6E33               	movwf	(tocar_nota@duracion+1)^0,c
   601  007C9E  0E7D               	movlw	125
   602  007CA0  6E32               	movwf	tocar_nota@duracion^0,c
   603  007CA2  0E96               	movlw	150
   604  007CA4  6E34               	movwf	tocar_nota@tfrec^0,c
   605  007CA6  0E43               	movlw	67
   606  007CA8  6E35               	movwf	(tocar_nota@tfrec+1)^0,c
   607  007CAA  0E23               	movlw	35
   608  007CAC  6E36               	movwf	(tocar_nota@tfrec+2)^0,c
   609  007CAE  0E40               	movlw	64
   610  007CB0  6E37               	movwf	(tocar_nota@tfrec+3)^0,c
   611  007CB2  ECD8  F037         	call	_tocar_nota	;wreg free
   612                           
   613                           ;main.c: 94:         tocar_nota(500,3.61);
   614  007CB6  0E01               	movlw	1
   615  007CB8  6E33               	movwf	(tocar_nota@duracion+1)^0,c
   616  007CBA  0EF4               	movlw	244
   617  007CBC  6E32               	movwf	tocar_nota@duracion^0,c
   618  007CBE  0E3D               	movlw	61
   619  007CC0  6E34               	movwf	tocar_nota@tfrec^0,c
   620  007CC2  0E0A               	movlw	10
   621  007CC4  6E35               	movwf	(tocar_nota@tfrec+1)^0,c
   622  007CC6  0E67               	movlw	103
   623  007CC8  6E36               	movwf	(tocar_nota@tfrec+2)^0,c
   624  007CCA  0E40               	movlw	64
   625  007CCC  6E37               	movwf	(tocar_nota@tfrec+3)^0,c
   626  007CCE  ECD8  F037         	call	_tocar_nota	;wreg free
   627                           
   628                           ;main.c: 96:          tocar_nota(375,3.82);
   629  007CD2  0E01               	movlw	1
   630  007CD4  6E33               	movwf	(tocar_nota@duracion+1)^0,c
   631  007CD6  0E77               	movlw	119
   632  007CD8  6E32               	movwf	tocar_nota@duracion^0,c
   633  007CDA  0EE1               	movlw	225
   634  007CDC  6E34               	movwf	tocar_nota@tfrec^0,c
   635  007CDE  0E7A               	movlw	122
   636  007CE0  6E35               	movwf	(tocar_nota@tfrec+1)^0,c
   637  007CE2  0E74               	movlw	116
   638  007CE4  6E36               	movwf	(tocar_nota@tfrec+2)^0,c
   639  007CE6  0E40               	movlw	64
   640  007CE8  6E37               	movwf	(tocar_nota@tfrec+3)^0,c
   641  007CEA  ECD8  F037         	call	_tocar_nota	;wreg free
   642                           
   643                           ;main.c: 97:         tocar_nota(125,2.551);
   644  007CEE  0E00               	movlw	0
   645  007CF0  6E33               	movwf	(tocar_nota@duracion+1)^0,c
   646  007CF2  0E7D               	movlw	125
   647  007CF4  6E32               	movwf	tocar_nota@duracion^0,c
   648  007CF6  0E96               	movlw	150
   649  007CF8  6E34               	movwf	tocar_nota@tfrec^0,c
   650  007CFA  0E43               	movlw	67
   651  007CFC  6E35               	movwf	(tocar_nota@tfrec+1)^0,c
   652  007CFE  0E23               	movlw	35
   653  007D00  6E36               	movwf	(tocar_nota@tfrec+2)^0,c
   654  007D02  0E40               	movlw	64
   655  007D04  6E37               	movwf	(tocar_nota@tfrec+3)^0,c
   656  007D06  ECD8  F037         	call	_tocar_nota	;wreg free
   657                           
   658                           ;main.c: 99:         tocar_nota(1000,3.034);
   659  007D0A  0E03               	movlw	3
   660  007D0C  6E33               	movwf	(tocar_nota@duracion+1)^0,c
   661  007D0E  0EE8               	movlw	232
   662  007D10  6E32               	movwf	tocar_nota@duracion^0,c
   663  007D12  0E0E               	movlw	14
   664  007D14  6E34               	movwf	tocar_nota@tfrec^0,c
   665  007D16  0E2D               	movlw	45
   666  007D18  6E35               	movwf	(tocar_nota@tfrec+1)^0,c
   667  007D1A  0E42               	movlw	66
   668  007D1C  6E36               	movwf	(tocar_nota@tfrec+2)^0,c
   669  007D1E  0E40               	movlw	64
   670  007D20  6E37               	movwf	(tocar_nota@tfrec+3)^0,c
   671  007D22  ECD8  F037         	call	_tocar_nota	;wreg free
   672                           
   673                           ;main.c: 101:         tocar_nota(500,1.517);
   674  007D26  0E01               	movlw	1
   675  007D28  6E33               	movwf	(tocar_nota@duracion+1)^0,c
   676  007D2A  0EF4               	movlw	244
   677  007D2C  6E32               	movwf	tocar_nota@duracion^0,c
   678  007D2E  0E0E               	movlw	14
   679  007D30  6E34               	movwf	tocar_nota@tfrec^0,c
   680  007D32  0E2D               	movlw	45
   681  007D34  6E35               	movwf	(tocar_nota@tfrec+1)^0,c
   682  007D36  0EC2               	movlw	194
   683  007D38  6E36               	movwf	(tocar_nota@tfrec+2)^0,c
   684  007D3A  0E3F               	movlw	63
   685  007D3C  6E37               	movwf	(tocar_nota@tfrec+3)^0,c
   686  007D3E  ECD8  F037         	call	_tocar_nota	;wreg free
   687                           
   688                           ;main.c: 102:         tocar_nota(375,3.034);
   689  007D42  0E01               	movlw	1
   690  007D44  6E33               	movwf	(tocar_nota@duracion+1)^0,c
   691  007D46  0E77               	movlw	119
   692  007D48  6E32               	movwf	tocar_nota@duracion^0,c
   693  007D4A  0E0E               	movlw	14
   694  007D4C  6E34               	movwf	tocar_nota@tfrec^0,c
   695  007D4E  0E2D               	movlw	45
   696  007D50  6E35               	movwf	(tocar_nota@tfrec+1)^0,c
   697  007D52  0E42               	movlw	66
   698  007D54  6E36               	movwf	(tocar_nota@tfrec+2)^0,c
   699  007D56  0E40               	movlw	64
   700  007D58  6E37               	movwf	(tocar_nota@tfrec+3)^0,c
   701  007D5A  ECD8  F037         	call	_tocar_nota	;wreg free
   702                           
   703                           ;main.c: 103:         tocar_nota(125,3.034);
   704  007D5E  0E00               	movlw	0
   705  007D60  6E33               	movwf	(tocar_nota@duracion+1)^0,c
   706  007D62  0E7D               	movlw	125
   707  007D64  6E32               	movwf	tocar_nota@duracion^0,c
   708  007D66  0E0E               	movlw	14
   709  007D68  6E34               	movwf	tocar_nota@tfrec^0,c
   710  007D6A  0E2D               	movlw	45
   711  007D6C  6E35               	movwf	(tocar_nota@tfrec+1)^0,c
   712  007D6E  0E42               	movlw	66
   713  007D70  6E36               	movwf	(tocar_nota@tfrec+2)^0,c
   714  007D72  0E40               	movlw	64
   715  007D74  6E37               	movwf	(tocar_nota@tfrec+3)^0,c
   716  007D76  ECD8  F037         	call	_tocar_nota	;wreg free
   717                           
   718                           ;main.c: 104:         tocar_nota(500,1.517);
   719  007D7A  0E01               	movlw	1
   720  007D7C  6E33               	movwf	(tocar_nota@duracion+1)^0,c
   721  007D7E  0EF4               	movlw	244
   722  007D80  6E32               	movwf	tocar_nota@duracion^0,c
   723  007D82  0E0E               	movlw	14
   724  007D84  6E34               	movwf	tocar_nota@tfrec^0,c
   725  007D86  0E2D               	movlw	45
   726  007D88  6E35               	movwf	(tocar_nota@tfrec+1)^0,c
   727  007D8A  0EC2               	movlw	194
   728  007D8C  6E36               	movwf	(tocar_nota@tfrec+2)^0,c
   729  007D8E  0E3F               	movlw	63
   730  007D90  6E37               	movwf	(tocar_nota@tfrec+3)^0,c
   731  007D92  ECD8  F037         	call	_tocar_nota	;wreg free
   732                           
   733                           ;main.c: 106:          tocar_nota(375,1.607);
   734  007D96  0E01               	movlw	1
   735  007D98  6E33               	movwf	(tocar_nota@duracion+1)^0,c
   736  007D9A  0E77               	movlw	119
   737  007D9C  6E32               	movwf	tocar_nota@duracion^0,c
   738  007D9E  0E2D               	movlw	45
   739  007DA0  6E34               	movwf	tocar_nota@tfrec^0,c
   740  007DA2  0EB2               	movlw	178
   741  007DA4  6E35               	movwf	(tocar_nota@tfrec+1)^0,c
   742  007DA6  0ECD               	movlw	205
   743  007DA8  6E36               	movwf	(tocar_nota@tfrec+2)^0,c
   744  007DAA  0E3F               	movlw	63
   745  007DAC  6E37               	movwf	(tocar_nota@tfrec+3)^0,c
   746  007DAE  ECD8  F037         	call	_tocar_nota	;wreg free
   747                           
   748                           ;main.c: 107:         tocar_nota(125,1.703);
   749  007DB2  0E00               	movlw	0
   750  007DB4  6E33               	movwf	(tocar_nota@duracion+1)^0,c
   751  007DB6  0E7D               	movlw	125
   752  007DB8  6E32               	movwf	tocar_nota@duracion^0,c
   753  007DBA  0EE7               	movlw	231
   754  007DBC  6E34               	movwf	tocar_nota@tfrec^0,c
   755  007DBE  0EFB               	movlw	251
   756  007DC0  6E35               	movwf	(tocar_nota@tfrec+1)^0,c
   757  007DC2  0ED9               	movlw	217
   758  007DC4  6E36               	movwf	(tocar_nota@tfrec+2)^0,c
   759  007DC6  0E3F               	movlw	63
   760  007DC8  6E37               	movwf	(tocar_nota@tfrec+3)^0,c
   761  007DCA  ECD8  F037         	call	_tocar_nota	;wreg free
   762                           
   763                           ;main.c: 109:          tocar_nota(125,1.804);
   764  007DCE  0E00               	movlw	0
   765  007DD0  6E33               	movwf	(tocar_nota@duracion+1)^0,c
   766  007DD2  0E7D               	movlw	125
   767  007DD4  6E32               	movwf	tocar_nota@duracion^0,c
   768  007DD6  0E79               	movlw	121
   769  007DD8  6E34               	movwf	tocar_nota@tfrec^0,c
   770  007DDA  0EE9               	movlw	233
   771  007DDC  6E35               	movwf	(tocar_nota@tfrec+1)^0,c
   772  007DDE  0EE6               	movlw	230
   773  007DE0  6E36               	movwf	(tocar_nota@tfrec+2)^0,c
   774  007DE2  0E3F               	movlw	63
   775  007DE4  6E37               	movwf	(tocar_nota@tfrec+3)^0,c
   776  007DE6  ECD8  F037         	call	_tocar_nota	;wreg free
   777                           
   778                           ;main.c: 110:           tocar_nota(125,1.911);
   779  007DEA  0E00               	movlw	0
   780  007DEC  6E33               	movwf	(tocar_nota@duracion+1)^0,c
   781  007DEE  0E7D               	movlw	125
   782  007DF0  6E32               	movwf	tocar_nota@duracion^0,c
   783  007DF2  0EA6               	movlw	166
   784  007DF4  6E34               	movwf	tocar_nota@tfrec^0,c
   785  007DF6  0E9B               	movlw	155
   786  007DF8  6E35               	movwf	(tocar_nota@tfrec+1)^0,c
   787  007DFA  0EF4               	movlw	244
   788  007DFC  6E36               	movwf	(tocar_nota@tfrec+2)^0,c
   789  007DFE  0E3F               	movlw	63
   790  007E00  6E37               	movwf	(tocar_nota@tfrec+3)^0,c
   791  007E02  ECD8  F037         	call	_tocar_nota	;wreg free
   792                           
   793                           ;main.c: 111:           tocar_nota(300,1.804);
   794  007E06  0E01               	movlw	1
   795  007E08  6E33               	movwf	(tocar_nota@duracion+1)^0,c
   796  007E0A  0E2C               	movlw	44
   797  007E0C  6E32               	movwf	tocar_nota@duracion^0,c
   798  007E0E  0E79               	movlw	121
   799  007E10  6E34               	movwf	tocar_nota@tfrec^0,c
   800  007E12  0EE9               	movlw	233
   801  007E14  6E35               	movwf	(tocar_nota@tfrec+1)^0,c
   802  007E16  0EE6               	movlw	230
   803  007E18  6E36               	movwf	(tocar_nota@tfrec+2)^0,c
   804  007E1A  0E3F               	movlw	63
   805  007E1C  6E37               	movwf	(tocar_nota@tfrec+3)^0,c
   806  007E1E  ECD8  F037         	call	_tocar_nota	;wreg free
   807                           
   808                           ;main.c: 113:           silencio(100,3.822);
   809  007E22  0E00               	movlw	0
   810  007E24  6E33               	movwf	(silencio@duracion+1)^0,c
   811  007E26  0E64               	movlw	100
   812  007E28  6E32               	movwf	silencio@duracion^0,c
   813  007E2A  0EA6               	movlw	166
   814  007E2C  6E34               	movwf	silencio@tfrec^0,c
   815  007E2E  0E9B               	movlw	155
   816  007E30  6E35               	movwf	(silencio@tfrec+1)^0,c
   817  007E32  0E74               	movlw	116
   818  007E34  6E36               	movwf	(silencio@tfrec+2)^0,c
   819  007E36  0E40               	movlw	64
   820  007E38  6E37               	movwf	(silencio@tfrec+3)^0,c
   821  007E3A  EC20  F037         	call	_silencio	;wreg free
   822                           
   823                           ;main.c: 114:           tocar_nota(300,2.863);
   824  007E3E  0E01               	movlw	1
   825  007E40  6E33               	movwf	(tocar_nota@duracion+1)^0,c
   826  007E42  0E2C               	movlw	44
   827  007E44  6E32               	movwf	tocar_nota@duracion^0,c
   828  007E46  0E64               	movlw	100
   829  007E48  6E34               	movwf	tocar_nota@tfrec^0,c
   830  007E4A  0E3B               	movlw	59
   831  007E4C  6E35               	movwf	(tocar_nota@tfrec+1)^0,c
   832  007E4E  0E37               	movlw	55
   833  007E50  6E36               	movwf	(tocar_nota@tfrec+2)^0,c
   834  007E52  0E40               	movlw	64
   835  007E54  6E37               	movwf	(tocar_nota@tfrec+3)^0,c
   836  007E56  ECD8  F037         	call	_tocar_nota	;wreg free
   837                           
   838                           ;main.c: 115:           tocar_nota(500,2.145);
   839  007E5A  0E01               	movlw	1
   840  007E5C  6E33               	movwf	(tocar_nota@duracion+1)^0,c
   841  007E5E  0EF4               	movlw	244
   842  007E60  6E32               	movwf	tocar_nota@duracion^0,c
   843  007E62  0EAE               	movlw	174
   844  007E64  6E34               	movwf	tocar_nota@tfrec^0,c
   845  007E66  0E47               	movlw	71
   846  007E68  6E35               	movwf	(tocar_nota@tfrec+1)^0,c
   847  007E6A  0E09               	movlw	9
   848  007E6C  6E36               	movwf	(tocar_nota@tfrec+2)^0,c
   849  007E6E  0E40               	movlw	64
   850  007E70  6E37               	movwf	(tocar_nota@tfrec+3)^0,c
   851  007E72  ECD8  F037         	call	_tocar_nota	;wreg free
   852                           
   853                           ;main.c: 117:           tocar_nota(375,2.273);
   854  007E76  0E01               	movlw	1
   855  007E78  6E33               	movwf	(tocar_nota@duracion+1)^0,c
   856  007E7A  0E77               	movlw	119
   857  007E7C  6E32               	movwf	tocar_nota@duracion^0,c
   858  007E7E  0ED5               	movlw	213
   859  007E80  6E34               	movwf	tocar_nota@tfrec^0,c
   860  007E82  0E78               	movlw	120
   861  007E84  6E35               	movwf	(tocar_nota@tfrec+1)^0,c
   862  007E86  0E11               	movlw	17
   863  007E88  6E36               	movwf	(tocar_nota@tfrec+2)^0,c
   864  007E8A  0E40               	movlw	64
   865  007E8C  6E37               	movwf	(tocar_nota@tfrec+3)^0,c
   866  007E8E  ECD8  F037         	call	_tocar_nota	;wreg free
   867                           
   868                           ;main.c: 118:         tocar_nota(125,2.408);
   869  007E92  0E00               	movlw	0
   870  007E94  6E33               	movwf	(tocar_nota@duracion+1)^0,c
   871  007E96  0E7D               	movlw	125
   872  007E98  6E32               	movwf	tocar_nota@duracion^0,c
   873  007E9A  0EAC               	movlw	172
   874  007E9C  6E34               	movwf	tocar_nota@tfrec^0,c
   875  007E9E  0E1C               	movlw	28
   876  007EA0  6E35               	movwf	(tocar_nota@tfrec+1)^0,c
   877  007EA2  0E1A               	movlw	26
   878  007EA4  6E36               	movwf	(tocar_nota@tfrec+2)^0,c
   879  007EA6  0E40               	movlw	64
   880  007EA8  6E37               	movwf	(tocar_nota@tfrec+3)^0,c
   881  007EAA  ECD8  F037         	call	_tocar_nota	;wreg free
   882                           
   883                           ;main.c: 120:         tocar_nota(125,2.551);
   884  007EAE  0E00               	movlw	0
   885  007EB0  6E33               	movwf	(tocar_nota@duracion+1)^0,c
   886  007EB2  0E7D               	movlw	125
   887  007EB4  6E32               	movwf	tocar_nota@duracion^0,c
   888  007EB6  0E96               	movlw	150
   889  007EB8  6E34               	movwf	tocar_nota@tfrec^0,c
   890  007EBA  0E43               	movlw	67
   891  007EBC  6E35               	movwf	(tocar_nota@tfrec+1)^0,c
   892  007EBE  0E23               	movlw	35
   893  007EC0  6E36               	movwf	(tocar_nota@tfrec+2)^0,c
   894  007EC2  0E40               	movlw	64
   895  007EC4  6E37               	movwf	(tocar_nota@tfrec+3)^0,c
   896  007EC6  ECD8  F037         	call	_tocar_nota	;wreg free
   897                           
   898                           ;main.c: 121:         tocar_nota(125,2.703);
   899  007ECA  0E00               	movlw	0
   900  007ECC  6E33               	movwf	(tocar_nota@duracion+1)^0,c
   901  007ECE  0E7D               	movlw	125
   902  007ED0  6E32               	movwf	tocar_nota@duracion^0,c
   903  007ED2  0EF4               	movlw	244
   904  007ED4  6E34               	movwf	tocar_nota@tfrec^0,c
   905  007ED6  0EFD               	movlw	253
   906  007ED8  6E35               	movwf	(tocar_nota@tfrec+1)^0,c
   907  007EDA  0E2C               	movlw	44
   908  007EDC  6E36               	movwf	(tocar_nota@tfrec+2)^0,c
   909  007EDE  0E40               	movlw	64
   910  007EE0  6E37               	movwf	(tocar_nota@tfrec+3)^0,c
   911  007EE2  ECD8  F037         	call	_tocar_nota	;wreg free
   912                           
   913                           ;main.c: 122:         tocar_nota(300,2.551);
   914  007EE6  0E01               	movlw	1
   915  007EE8  6E33               	movwf	(tocar_nota@duracion+1)^0,c
   916  007EEA  0E2C               	movlw	44
   917  007EEC  6E32               	movwf	tocar_nota@duracion^0,c
   918  007EEE  0E96               	movlw	150
   919  007EF0  6E34               	movwf	tocar_nota@tfrec^0,c
   920  007EF2  0E43               	movlw	67
   921  007EF4  6E35               	movwf	(tocar_nota@tfrec+1)^0,c
   922  007EF6  0E23               	movlw	35
   923  007EF8  6E36               	movwf	(tocar_nota@tfrec+2)^0,c
   924  007EFA  0E40               	movlw	64
   925  007EFC  6E37               	movwf	(tocar_nota@tfrec+3)^0,c
   926  007EFE  ECD8  F037         	call	_tocar_nota	;wreg free
   927                           
   928                           ;main.c: 124:         silencio(100,3.822);
   929  007F02  0E00               	movlw	0
   930  007F04  6E33               	movwf	(silencio@duracion+1)^0,c
   931  007F06  0E64               	movlw	100
   932  007F08  6E32               	movwf	silencio@duracion^0,c
   933  007F0A  0EA6               	movlw	166
   934  007F0C  6E34               	movwf	silencio@tfrec^0,c
   935  007F0E  0E9B               	movlw	155
   936  007F10  6E35               	movwf	(silencio@tfrec+1)^0,c
   937  007F12  0E74               	movlw	116
   938  007F14  6E36               	movwf	(silencio@tfrec+2)^0,c
   939  007F16  0E40               	movlw	64
   940  007F18  6E37               	movwf	(silencio@tfrec+3)^0,c
   941  007F1A  EC20  F037         	call	_silencio	;wreg free
   942                           
   943                           ;main.c: 125:         tocar_nota(300,3.822);
   944  007F1E  0E01               	movlw	1
   945  007F20  6E33               	movwf	(tocar_nota@duracion+1)^0,c
   946  007F22  0E2C               	movlw	44
   947  007F24  6E32               	movwf	tocar_nota@duracion^0,c
   948  007F26  0EA6               	movlw	166
   949  007F28  6E34               	movwf	tocar_nota@tfrec^0,c
   950  007F2A  0E9B               	movlw	155
   951  007F2C  6E35               	movwf	(tocar_nota@tfrec+1)^0,c
   952  007F2E  0E74               	movlw	116
   953  007F30  6E36               	movwf	(tocar_nota@tfrec+2)^0,c
   954  007F32  0E40               	movlw	64
   955  007F34  6E37               	movwf	(tocar_nota@tfrec+3)^0,c
   956  007F36  ECD8  F037         	call	_tocar_nota	;wreg free
   957                           
   958                           ;main.c: 126:         tocar_nota(500,3.608);
   959  007F3A  0E01               	movlw	1
   960  007F3C  6E33               	movwf	(tocar_nota@duracion+1)^0,c
   961  007F3E  0EF4               	movlw	244
   962  007F40  6E32               	movwf	tocar_nota@duracion^0,c
   963  007F42  0E79               	movlw	121
   964  007F44  6E34               	movwf	tocar_nota@tfrec^0,c
   965  007F46  0EE9               	movlw	233
   966  007F48  6E35               	movwf	(tocar_nota@tfrec+1)^0,c
   967  007F4A  0E66               	movlw	102
   968  007F4C  6E36               	movwf	(tocar_nota@tfrec+2)^0,c
   969  007F4E  0E40               	movlw	64
   970  007F50  6E37               	movwf	(tocar_nota@tfrec+3)^0,c
   971  007F52  ECD8  F037         	call	_tocar_nota	;wreg free
   972                           
   973                           ;main.c: 127:          tocar_nota(375,3.822);
   974  007F56  0E01               	movlw	1
   975  007F58  6E33               	movwf	(tocar_nota@duracion+1)^0,c
   976  007F5A  0E77               	movlw	119
   977  007F5C  6E32               	movwf	tocar_nota@duracion^0,c
   978  007F5E  0EA6               	movlw	166
   979  007F60  6E34               	movwf	tocar_nota@tfrec^0,c
   980  007F62  0E9B               	movlw	155
   981  007F64  6E35               	movwf	(tocar_nota@tfrec+1)^0,c
   982  007F66  0E74               	movlw	116
   983  007F68  6E36               	movwf	(tocar_nota@tfrec+2)^0,c
   984  007F6A  0E40               	movlw	64
   985  007F6C  6E37               	movwf	(tocar_nota@tfrec+3)^0,c
   986  007F6E  ECD8  F037         	call	_tocar_nota	;wreg free
   987                           
   988                           ;main.c: 128:         tocar_nota(125,2.551);
   989  007F72  0E00               	movlw	0
   990  007F74  6E33               	movwf	(tocar_nota@duracion+1)^0,c
   991  007F76  0E7D               	movlw	125
   992  007F78  6E32               	movwf	tocar_nota@duracion^0,c
   993  007F7A  0E96               	movlw	150
   994  007F7C  6E34               	movwf	tocar_nota@tfrec^0,c
   995  007F7E  0E43               	movlw	67
   996  007F80  6E35               	movwf	(tocar_nota@tfrec+1)^0,c
   997  007F82  0E23               	movlw	35
   998  007F84  6E36               	movwf	(tocar_nota@tfrec+2)^0,c
   999  007F86  0E40               	movlw	64
  1000  007F88  6E37               	movwf	(tocar_nota@tfrec+3)^0,c
  1001  007F8A  ECD8  F037         	call	_tocar_nota	;wreg free
  1002                           
  1003                           ;main.c: 130:         tocar_nota(500,3.034);
  1004  007F8E  0E01               	movlw	1
  1005  007F90  6E33               	movwf	(tocar_nota@duracion+1)^0,c
  1006  007F92  0EF4               	movlw	244
  1007  007F94  6E32               	movwf	tocar_nota@duracion^0,c
  1008  007F96  0E0E               	movlw	14
  1009  007F98  6E34               	movwf	tocar_nota@tfrec^0,c
  1010  007F9A  0E2D               	movlw	45
  1011  007F9C  6E35               	movwf	(tocar_nota@tfrec+1)^0,c
  1012  007F9E  0E42               	movlw	66
  1013  007FA0  6E36               	movwf	(tocar_nota@tfrec+2)^0,c
  1014  007FA2  0E40               	movlw	64
  1015  007FA4  6E37               	movwf	(tocar_nota@tfrec+3)^0,c
  1016  007FA6  ECD8  F037         	call	_tocar_nota	;wreg free
  1017                           
  1018                           ;main.c: 131:         tocar_nota(375,3.822);
  1019  007FAA  0E01               	movlw	1
  1020  007FAC  6E33               	movwf	(tocar_nota@duracion+1)^0,c
  1021  007FAE  0E77               	movlw	119
  1022  007FB0  6E32               	movwf	tocar_nota@duracion^0,c
  1023  007FB2  0EA6               	movlw	166
  1024  007FB4  6E34               	movwf	tocar_nota@tfrec^0,c
  1025  007FB6  0E9B               	movlw	155
  1026  007FB8  6E35               	movwf	(tocar_nota@tfrec+1)^0,c
  1027  007FBA  0E74               	movlw	116
  1028  007FBC  6E36               	movwf	(tocar_nota@tfrec+2)^0,c
  1029  007FBE  0E40               	movlw	64
  1030  007FC0  6E37               	movwf	(tocar_nota@tfrec+3)^0,c
  1031  007FC2  ECD8  F037         	call	_tocar_nota	;wreg free
  1032                           
  1033                           ;main.c: 132:         tocar_nota(125,2.551);
  1034  007FC6  0E00               	movlw	0
  1035  007FC8  6E33               	movwf	(tocar_nota@duracion+1)^0,c
  1036  007FCA  0E7D               	movlw	125
  1037  007FCC  6E32               	movwf	tocar_nota@duracion^0,c
  1038  007FCE  0E96               	movlw	150
  1039  007FD0  6E34               	movwf	tocar_nota@tfrec^0,c
  1040  007FD2  0E43               	movlw	67
  1041  007FD4  6E35               	movwf	(tocar_nota@tfrec+1)^0,c
  1042  007FD6  0E23               	movlw	35
  1043  007FD8  6E36               	movwf	(tocar_nota@tfrec+2)^0,c
  1044  007FDA  0E40               	movlw	64
  1045  007FDC  6E37               	movwf	(tocar_nota@tfrec+3)^0,c
  1046  007FDE  ECD8  F037         	call	_tocar_nota	;wreg free
  1047                           
  1048                           ;main.c: 133:         tocar_nota(2500,3.034);
  1049  007FE2  0E09               	movlw	9
  1050  007FE4  6E33               	movwf	(tocar_nota@duracion+1)^0,c
  1051  007FE6  0EC4               	movlw	196
  1052  007FE8  6E32               	movwf	tocar_nota@duracion^0,c
  1053  007FEA  0E0E               	movlw	14
  1054  007FEC  6E34               	movwf	tocar_nota@tfrec^0,c
  1055  007FEE  0E2D               	movlw	45
  1056  007FF0  6E35               	movwf	(tocar_nota@tfrec+1)^0,c
  1057  007FF2  0E42               	movlw	66
  1058  007FF4  6E36               	movwf	(tocar_nota@tfrec+2)^0,c
  1059  007FF6  0E40               	movlw	64
  1060  007FF8  6E37               	movwf	(tocar_nota@tfrec+3)^0,c
  1061  007FFA  ECD8  F037         	call	_tocar_nota	;wreg free
  1062  007FFE  0012               	return		;funcret
  1063  008000                     __end_of_sw:
  1064                           	callstack 0
  1065                           
  1066 ;; *************** function _tocar_nota *****************
  1067 ;; Defined at:
  1068 ;;		line 19 in file "main.c"
  1069 ;; Parameters:    Size  Location     Type
  1070 ;;  duracion        2   49[COMRAM] int 
  1071 ;;  tfrec           4   51[COMRAM] float 
  1072 ;; Auto vars:     Size  Location     Type
  1073 ;;		None
  1074 ;; Return value:  Size  Location     Type
  1075 ;;                  1    wreg      void 
  1076 ;; Registers used:
  1077 ;;		wreg, status,2, status,0, cstack
  1078 ;; Tracked objects:
  1079 ;;		On entry : 0/0
  1080 ;;		On exit  : 0/0
  1081 ;;		Unchanged: 0/0
  1082 ;; Data sizes:     COMRAM   BANK0   BANK1   BANK2   BANK3   BANK4   BANK5   BANK6   BANK7
  1083 ;;      Params:         6       0       0       0       0       0       0       0       0
  1084 ;;      Locals:         4       0       0       0       0       0       0       0       0
  1085 ;;      Temps:          1       0       0       0       0       0       0       0       0
  1086 ;;      Totals:        11       0       0       0       0       0       0       0       0
  1087 ;;Total ram usage:       11 bytes
  1088 ;; Hardware stack levels used: 1
  1089 ;; Hardware stack levels required when called: 2
  1090 ;; This function calls:
  1091 ;;		___fldiv
  1092 ;;		___flsub
  1093 ;;		___fltol
  1094 ;;		___xxtofl
  1095 ;; This function is called by:
  1096 ;;		_sw
  1097 ;; This function uses a non-reentrant model
  1098 ;;
  1099                           
  1100                           	psect	text2
  1101  006FB0                     __ptext2:
  1102                           	callstack 0
  1103  006FB0                     _tocar_nota:
  1104                           	callstack 27
  1105  006FB0                     
  1106                           ;main.c: 21:      duracion = duracion/tfrec;
  1107  006FB0  C034  F013         	movff	tocar_nota@tfrec,___fldiv@a
  1108  006FB4  C035  F014         	movff	tocar_nota@tfrec+1,___fldiv@a+1
  1109  006FB8  C036  F015         	movff	tocar_nota@tfrec+2,___fldiv@a+2
  1110  006FBC  C037  F016         	movff	tocar_nota@tfrec+3,___fldiv@a+3
  1111  006FC0  C032  F001         	movff	tocar_nota@duracion,___xxtofl@val
  1112  006FC4  C033  F002         	movff	tocar_nota@duracion+1,___xxtofl@val+1
  1113  006FC8  0E00               	movlw	0
  1114  006FCA  BE02               	btfsc	(___xxtofl@val+1)^0,7,c
  1115  006FCC  0EFF               	movlw	-1
  1116  006FCE  6E03               	movwf	(___xxtofl@val+2)^0,c
  1117  006FD0  6E04               	movwf	(___xxtofl@val+3)^0,c
  1118  006FD2  0E01               	movlw	1
  1119  006FD4  EC90  F038         	call	___xxtofl
  1120  006FD8  C001  F00F         	movff	?___xxtofl,___fldiv@b
  1121  006FDC  C002  F010         	movff	?___xxtofl+1,___fldiv@b+1
  1122  006FE0  C003  F011         	movff	?___xxtofl+2,___fldiv@b+2
  1123  006FE4  C004  F012         	movff	?___xxtofl+3,___fldiv@b+3
  1124  006FE8  EC6A  F039         	call	___fldiv	;wreg free
  1125  006FEC  C00F  F028         	movff	?___fldiv,___fltol@f1
  1126  006FF0  C010  F029         	movff	?___fldiv+1,___fltol@f1+1
  1127  006FF4  C011  F02A         	movff	?___fldiv+2,___fltol@f1+2
  1128  006FF8  C012  F02B         	movff	?___fldiv+3,___fltol@f1+3
  1129  006FFC  EC9D  F036         	call	___fltol	;wreg free
  1130  007000  C028  F032         	movff	?___fltol,tocar_nota@duracion
  1131  007004  C029  F033         	movff	?___fltol+1,tocar_nota@duracion+1
  1132                           
  1133                           ;main.c: 22:      tfrec = 255-((tfrec/2)/(.0002*128));
  1134  007008  0E00               	movlw	0
  1135  00700A  6E13               	movwf	___fldiv@a^0,c
  1136  00700C  0E00               	movlw	0
  1137  00700E  6E14               	movwf	(___fldiv@a+1)^0,c
  1138  007010  0E00               	movlw	0
  1139  007012  6E15               	movwf	(___fldiv@a+2)^0,c
  1140  007014  0E40               	movlw	64
  1141  007016  6E16               	movwf	(___fldiv@a+3)^0,c
  1142  007018  C034  F00F         	movff	tocar_nota@tfrec,___fldiv@b
  1143  00701C  C035  F010         	movff	tocar_nota@tfrec+1,___fldiv@b+1
  1144  007020  C036  F011         	movff	tocar_nota@tfrec+2,___fldiv@b+2
  1145  007024  C037  F012         	movff	tocar_nota@tfrec+3,___fldiv@b+3
  1146  007028  EC6A  F039         	call	___fldiv	;wreg free
  1147  00702C  C00F  F039         	movff	?___fldiv,_tocar_nota$954
  1148  007030  C010  F03A         	movff	?___fldiv+1,_tocar_nota$954+1
  1149  007034  C011  F03B         	movff	?___fldiv+2,_tocar_nota$954+2
  1150  007038  C012  F03C         	movff	?___fldiv+3,_tocar_nota$954+3
  1151                           
  1152                           ;main.c: 22:      tfrec = 255-((tfrec/2)/(.0002*128));
  1153  00703C  0E00               	movlw	0
  1154  00703E  6E28               	movwf	___flsub@b^0,c
  1155  007040  0E00               	movlw	0
  1156  007042  6E29               	movwf	(___flsub@b+1)^0,c
  1157  007044  0E7F               	movlw	127
  1158  007046  6E2A               	movwf	(___flsub@b+2)^0,c
  1159  007048  0E43               	movlw	67
  1160  00704A  6E2B               	movwf	(___flsub@b+3)^0,c
  1161  00704C  0E17               	movlw	23
  1162  00704E  6E13               	movwf	___fldiv@a^0,c
  1163  007050  0EB7               	movlw	183
  1164  007052  6E14               	movwf	(___fldiv@a+1)^0,c
  1165  007054  0ED1               	movlw	209
  1166  007056  6E15               	movwf	(___fldiv@a+2)^0,c
  1167  007058  0E3C               	movlw	60
  1168  00705A  6E16               	movwf	(___fldiv@a+3)^0,c
  1169  00705C  C039  F00F         	movff	_tocar_nota$954,___fldiv@b
  1170  007060  C03A  F010         	movff	_tocar_nota$954+1,___fldiv@b+1
  1171  007064  C03B  F011         	movff	_tocar_nota$954+2,___fldiv@b+2
  1172  007068  C03C  F012         	movff	_tocar_nota$954+3,___fldiv@b+3
  1173  00706C  EC6A  F039         	call	___fldiv	;wreg free
  1174  007070  C00F  F02C         	movff	?___fldiv,___flsub@a
  1175  007074  C010  F02D         	movff	?___fldiv+1,___flsub@a+1
  1176  007078  C011  F02E         	movff	?___fldiv+2,___flsub@a+2
  1177  00707C  C012  F02F         	movff	?___fldiv+3,___flsub@a+3
  1178  007080  ECF5  F035         	call	___flsub	;wreg free
  1179  007084  C028  F034         	movff	?___flsub,tocar_nota@tfrec
  1180  007088  C029  F035         	movff	?___flsub+1,tocar_nota@tfrec+1
  1181  00708C  C02A  F036         	movff	?___flsub+2,tocar_nota@tfrec+2
  1182  007090  C02B  F037         	movff	?___flsub+3,tocar_nota@tfrec+3
  1183  007094                     
  1184                           ;main.c: 24:        for(b=0;b<duracion;b++){
  1185  007094  0E00               	movlw	0
  1186  007096  6E48               	movwf	(_b+1)^0,c
  1187  007098  0E00               	movlw	0
  1188  00709A  6E47               	movwf	_b^0,c
  1189  00709C  EF80  F038         	goto	l1828
  1190  0070A0                     l62:
  1191                           
  1192                           ;main.c: 25:             PORTAbits.RA0 = 1;
  1193  0070A0  8080               	bsf	128,0,c	;volatile
  1194  0070A2                     
  1195                           ;main.c: 26:            TMR0 = tfrec;
  1196  0070A2  C034  F028         	movff	tocar_nota@tfrec,___fltol@f1
  1197  0070A6  C035  F029         	movff	tocar_nota@tfrec+1,___fltol@f1+1
  1198  0070AA  C036  F02A         	movff	tocar_nota@tfrec+2,___fltol@f1+2
  1199  0070AE  C037  F02B         	movff	tocar_nota@tfrec+3,___fltol@f1+3
  1200  0070B2  EC9D  F036         	call	___fltol	;wreg free
  1201  0070B6  C028  FFD6         	movff	?___fltol,4054	;volatile
  1202  0070BA  C029  FFD7         	movff	?___fltol+1,4055	;volatile
  1203  0070BE                     l63:
  1204  0070BE  A4F2               	btfss	242,2,c	;volatile
  1205  0070C0  EF64  F038         	goto	u1671
  1206  0070C4  EF66  F038         	goto	u1670
  1207  0070C8                     u1671:
  1208  0070C8  EF5F  F038         	goto	l63
  1209  0070CC                     u1670:
  1210  0070CC                     
  1211                           ;main.c: 28:            INTCONbits.TMR0IF=0;
  1212  0070CC  94F2               	bcf	242,2,c	;volatile
  1213                           
  1214                           ;main.c: 30:         PORTAbits.RA0=0;
  1215  0070CE  9080               	bcf	128,0,c	;volatile
  1216  0070D0                     
  1217                           ;main.c: 31:          TMR0 = tfrec;
  1218  0070D0  C034  F028         	movff	tocar_nota@tfrec,___fltol@f1
  1219  0070D4  C035  F029         	movff	tocar_nota@tfrec+1,___fltol@f1+1
  1220  0070D8  C036  F02A         	movff	tocar_nota@tfrec+2,___fltol@f1+2
  1221  0070DC  C037  F02B         	movff	tocar_nota@tfrec+3,___fltol@f1+3
  1222  0070E0  EC9D  F036         	call	___fltol	;wreg free
  1223  0070E4  C028  FFD6         	movff	?___fltol,4054	;volatile
  1224  0070E8  C029  FFD7         	movff	?___fltol+1,4055	;volatile
  1225  0070EC                     l66:
  1226  0070EC  A4F2               	btfss	242,2,c	;volatile
  1227  0070EE  EF7B  F038         	goto	u1681
  1228  0070F2  EF7D  F038         	goto	u1680
  1229  0070F6                     u1681:
  1230  0070F6  EF76  F038         	goto	l66
  1231  0070FA                     u1680:
  1232  0070FA                     
  1233                           ;main.c: 33:          INTCONbits.TMR0IF=0;
  1234  0070FA  94F2               	bcf	242,2,c	;volatile
  1235  0070FC                     
  1236                           ;main.c: 34: }
  1237  0070FC  4A47               	infsnz	_b^0,f,c
  1238  0070FE  2A48               	incf	(_b+1)^0,f,c
  1239  007100                     l1828:
  1240  007100  5032               	movf	tocar_nota@duracion^0,w,c
  1241  007102  5C47               	subwf	_b^0,w,c
  1242  007104  5048               	movf	(_b+1)^0,w,c
  1243  007106  0A80               	xorlw	128
  1244  007108  6E38               	movwf	??_tocar_nota^0,c
  1245  00710A  5033               	movf	(tocar_nota@duracion+1)^0,w,c
  1246  00710C  0A80               	xorlw	128
  1247  00710E  5838               	subwfb	??_tocar_nota^0,w,c
  1248  007110  A0D8               	btfss	status,0,c
  1249  007112  EF8D  F038         	goto	u1691
  1250  007116  EF8F  F038         	goto	u1690
  1251  00711A                     u1691:
  1252  00711A  EF50  F038         	goto	l62
  1253  00711E                     u1690:
  1254  00711E  0012               	return		;funcret
  1255  007120                     __end_of_tocar_nota:
  1256                           	callstack 0
  1257                           
  1258 ;; *************** function _silencio *****************
  1259 ;; Defined at:
  1260 ;;		line 36 in file "main.c"
  1261 ;; Parameters:    Size  Location     Type
  1262 ;;  duracion        2   49[COMRAM] int 
  1263 ;;  tfrec           4   51[COMRAM] float 
  1264 ;; Auto vars:     Size  Location     Type
  1265 ;;		None
  1266 ;; Return value:  Size  Location     Type
  1267 ;;                  1    wreg      void 
  1268 ;; Registers used:
  1269 ;;		wreg, status,2, status,0, cstack
  1270 ;; Tracked objects:
  1271 ;;		On entry : 0/0
  1272 ;;		On exit  : 0/0
  1273 ;;		Unchanged: 0/0
  1274 ;; Data sizes:     COMRAM   BANK0   BANK1   BANK2   BANK3   BANK4   BANK5   BANK6   BANK7
  1275 ;;      Params:         6       0       0       0       0       0       0       0       0
  1276 ;;      Locals:         4       0       0       0       0       0       0       0       0
  1277 ;;      Temps:          1       0       0       0       0       0       0       0       0
  1278 ;;      Totals:        11       0       0       0       0       0       0       0       0
  1279 ;;Total ram usage:       11 bytes
  1280 ;; Hardware stack levels used: 1
  1281 ;; Hardware stack levels required when called: 2
  1282 ;; This function calls:
  1283 ;;		___fldiv
  1284 ;;		___flsub
  1285 ;;		___fltol
  1286 ;;		___xxtofl
  1287 ;; This function is called by:
  1288 ;;		_sw
  1289 ;; This function uses a non-reentrant model
  1290 ;;
  1291                           
  1292                           	psect	text3
  1293  006E40                     __ptext3:
  1294                           	callstack 0
  1295  006E40                     _silencio:
  1296                           	callstack 27
  1297  006E40                     
  1298                           ;main.c: 38:      duracion = duracion/tfrec;
  1299  006E40  C034  F013         	movff	silencio@tfrec,___fldiv@a
  1300  006E44  C035  F014         	movff	silencio@tfrec+1,___fldiv@a+1
  1301  006E48  C036  F015         	movff	silencio@tfrec+2,___fldiv@a+2
  1302  006E4C  C037  F016         	movff	silencio@tfrec+3,___fldiv@a+3
  1303  006E50  C032  F001         	movff	silencio@duracion,___xxtofl@val
  1304  006E54  C033  F002         	movff	silencio@duracion+1,___xxtofl@val+1
  1305  006E58  0E00               	movlw	0
  1306  006E5A  BE02               	btfsc	(___xxtofl@val+1)^0,7,c
  1307  006E5C  0EFF               	movlw	-1
  1308  006E5E  6E03               	movwf	(___xxtofl@val+2)^0,c
  1309  006E60  6E04               	movwf	(___xxtofl@val+3)^0,c
  1310  006E62  0E01               	movlw	1
  1311  006E64  EC90  F038         	call	___xxtofl
  1312  006E68  C001  F00F         	movff	?___xxtofl,___fldiv@b
  1313  006E6C  C002  F010         	movff	?___xxtofl+1,___fldiv@b+1
  1314  006E70  C003  F011         	movff	?___xxtofl+2,___fldiv@b+2
  1315  006E74  C004  F012         	movff	?___xxtofl+3,___fldiv@b+3
  1316  006E78  EC6A  F039         	call	___fldiv	;wreg free
  1317  006E7C  C00F  F028         	movff	?___fldiv,___fltol@f1
  1318  006E80  C010  F029         	movff	?___fldiv+1,___fltol@f1+1
  1319  006E84  C011  F02A         	movff	?___fldiv+2,___fltol@f1+2
  1320  006E88  C012  F02B         	movff	?___fldiv+3,___fltol@f1+3
  1321  006E8C  EC9D  F036         	call	___fltol	;wreg free
  1322  006E90  C028  F032         	movff	?___fltol,silencio@duracion
  1323  006E94  C029  F033         	movff	?___fltol+1,silencio@duracion+1
  1324                           
  1325                           ;main.c: 39:      tfrec = 255-((tfrec/2)/(.0002*128));
  1326  006E98  0E00               	movlw	0
  1327  006E9A  6E13               	movwf	___fldiv@a^0,c
  1328  006E9C  0E00               	movlw	0
  1329  006E9E  6E14               	movwf	(___fldiv@a+1)^0,c
  1330  006EA0  0E00               	movlw	0
  1331  006EA2  6E15               	movwf	(___fldiv@a+2)^0,c
  1332  006EA4  0E40               	movlw	64
  1333  006EA6  6E16               	movwf	(___fldiv@a+3)^0,c
  1334  006EA8  C034  F00F         	movff	silencio@tfrec,___fldiv@b
  1335  006EAC  C035  F010         	movff	silencio@tfrec+1,___fldiv@b+1
  1336  006EB0  C036  F011         	movff	silencio@tfrec+2,___fldiv@b+2
  1337  006EB4  C037  F012         	movff	silencio@tfrec+3,___fldiv@b+3
  1338  006EB8  EC6A  F039         	call	___fldiv	;wreg free
  1339  006EBC  C00F  F039         	movff	?___fldiv,_silencio$955
  1340  006EC0  C010  F03A         	movff	?___fldiv+1,_silencio$955+1
  1341  006EC4  C011  F03B         	movff	?___fldiv+2,_silencio$955+2
  1342  006EC8  C012  F03C         	movff	?___fldiv+3,_silencio$955+3
  1343                           
  1344                           ;main.c: 39:      tfrec = 255-((tfrec/2)/(.0002*128));
  1345  006ECC  0E00               	movlw	0
  1346  006ECE  6E28               	movwf	___flsub@b^0,c
  1347  006ED0  0E00               	movlw	0
  1348  006ED2  6E29               	movwf	(___flsub@b+1)^0,c
  1349  006ED4  0E7F               	movlw	127
  1350  006ED6  6E2A               	movwf	(___flsub@b+2)^0,c
  1351  006ED8  0E43               	movlw	67
  1352  006EDA  6E2B               	movwf	(___flsub@b+3)^0,c
  1353  006EDC  0E17               	movlw	23
  1354  006EDE  6E13               	movwf	___fldiv@a^0,c
  1355  006EE0  0EB7               	movlw	183
  1356  006EE2  6E14               	movwf	(___fldiv@a+1)^0,c
  1357  006EE4  0ED1               	movlw	209
  1358  006EE6  6E15               	movwf	(___fldiv@a+2)^0,c
  1359  006EE8  0E3C               	movlw	60
  1360  006EEA  6E16               	movwf	(___fldiv@a+3)^0,c
  1361  006EEC  C039  F00F         	movff	_silencio$955,___fldiv@b
  1362  006EF0  C03A  F010         	movff	_silencio$955+1,___fldiv@b+1
  1363  006EF4  C03B  F011         	movff	_silencio$955+2,___fldiv@b+2
  1364  006EF8  C03C  F012         	movff	_silencio$955+3,___fldiv@b+3
  1365  006EFC  EC6A  F039         	call	___fldiv	;wreg free
  1366  006F00  C00F  F02C         	movff	?___fldiv,___flsub@a
  1367  006F04  C010  F02D         	movff	?___fldiv+1,___flsub@a+1
  1368  006F08  C011  F02E         	movff	?___fldiv+2,___flsub@a+2
  1369  006F0C  C012  F02F         	movff	?___fldiv+3,___flsub@a+3
  1370  006F10  ECF5  F035         	call	___flsub	;wreg free
  1371  006F14  C028  F034         	movff	?___flsub,silencio@tfrec
  1372  006F18  C029  F035         	movff	?___flsub+1,silencio@tfrec+1
  1373  006F1C  C02A  F036         	movff	?___flsub+2,silencio@tfrec+2
  1374  006F20  C02B  F037         	movff	?___flsub+3,silencio@tfrec+3
  1375  006F24                     
  1376                           ;main.c: 41:        for(b=0;b<duracion;b++){
  1377  006F24  0E00               	movlw	0
  1378  006F26  6E48               	movwf	(_b+1)^0,c
  1379  006F28  0E00               	movlw	0
  1380  006F2A  6E47               	movwf	_b^0,c
  1381  006F2C  EFC8  F037         	goto	l1840
  1382  006F30                     l74:
  1383                           
  1384                           ;main.c: 42:             PORTAbits.RA0 = 0;
  1385  006F30  9080               	bcf	128,0,c	;volatile
  1386  006F32                     
  1387                           ;main.c: 43:            TMR0 = tfrec;
  1388  006F32  C034  F028         	movff	silencio@tfrec,___fltol@f1
  1389  006F36  C035  F029         	movff	silencio@tfrec+1,___fltol@f1+1
  1390  006F3A  C036  F02A         	movff	silencio@tfrec+2,___fltol@f1+2
  1391  006F3E  C037  F02B         	movff	silencio@tfrec+3,___fltol@f1+3
  1392  006F42  EC9D  F036         	call	___fltol	;wreg free
  1393  006F46  C028  FFD6         	movff	?___fltol,4054	;volatile
  1394  006F4A  C029  FFD7         	movff	?___fltol+1,4055	;volatile
  1395  006F4E                     l75:
  1396  006F4E  A4F2               	btfss	242,2,c	;volatile
  1397  006F50  EFAC  F037         	goto	u1701
  1398  006F54  EFAE  F037         	goto	u1700
  1399  006F58                     u1701:
  1400  006F58  EFA7  F037         	goto	l75
  1401  006F5C                     u1700:
  1402  006F5C                     
  1403                           ;main.c: 45:            INTCONbits.TMR0IF=0;
  1404  006F5C  94F2               	bcf	242,2,c	;volatile
  1405                           
  1406                           ;main.c: 47:         PORTAbits.RA0=0;
  1407  006F5E  9080               	bcf	128,0,c	;volatile
  1408  006F60                     
  1409                           ;main.c: 48:          TMR0 = tfrec;
  1410  006F60  C034  F028         	movff	silencio@tfrec,___fltol@f1
  1411  006F64  C035  F029         	movff	silencio@tfrec+1,___fltol@f1+1
  1412  006F68  C036  F02A         	movff	silencio@tfrec+2,___fltol@f1+2
  1413  006F6C  C037  F02B         	movff	silencio@tfrec+3,___fltol@f1+3
  1414  006F70  EC9D  F036         	call	___fltol	;wreg free
  1415  006F74  C028  FFD6         	movff	?___fltol,4054	;volatile
  1416  006F78  C029  FFD7         	movff	?___fltol+1,4055	;volatile
  1417  006F7C                     l78:
  1418  006F7C  A4F2               	btfss	242,2,c	;volatile
  1419  006F7E  EFC3  F037         	goto	u1711
  1420  006F82  EFC5  F037         	goto	u1710
  1421  006F86                     u1711:
  1422  006F86  EFBE  F037         	goto	l78
  1423  006F8A                     u1710:
  1424  006F8A                     
  1425                           ;main.c: 50:          INTCONbits.TMR0IF=0;
  1426  006F8A  94F2               	bcf	242,2,c	;volatile
  1427  006F8C                     
  1428                           ;main.c: 51: }
  1429  006F8C  4A47               	infsnz	_b^0,f,c
  1430  006F8E  2A48               	incf	(_b+1)^0,f,c
  1431  006F90                     l1840:
  1432  006F90  5032               	movf	silencio@duracion^0,w,c
  1433  006F92  5C47               	subwf	_b^0,w,c
  1434  006F94  5048               	movf	(_b+1)^0,w,c
  1435  006F96  0A80               	xorlw	128
  1436  006F98  6E38               	movwf	??_silencio^0,c
  1437  006F9A  5033               	movf	(silencio@duracion+1)^0,w,c
  1438  006F9C  0A80               	xorlw	128
  1439  006F9E  5838               	subwfb	??_silencio^0,w,c
  1440  006FA0  A0D8               	btfss	status,0,c
  1441  006FA2  EFD5  F037         	goto	u1721
  1442  006FA6  EFD7  F037         	goto	u1720
  1443  006FAA                     u1721:
  1444  006FAA  EF98  F037         	goto	l74
  1445  006FAE                     u1720:
  1446  006FAE  0012               	return		;funcret
  1447  006FB0                     __end_of_silencio:
  1448                           	callstack 0
  1449                           
  1450 ;; *************** function ___xxtofl *****************
  1451 ;; Defined at:
  1452 ;;		line 10 in file "C:\Program Files\Microchip\xc8\v2.32\pic\sources\c99\common\xxtofl.c"
  1453 ;; Parameters:    Size  Location     Type
  1454 ;;  sign            1    wreg     unsigned char 
  1455 ;;  val             4    0[COMRAM] long 
  1456 ;; Auto vars:     Size  Location     Type
  1457 ;;  sign            1    8[COMRAM] unsigned char 
  1458 ;;  arg             4   10[COMRAM] unsigned long 
  1459 ;;  exp             1    9[COMRAM] unsigned char 
  1460 ;; Return value:  Size  Location     Type
  1461 ;;                  4    0[COMRAM] unsigned char 
  1462 ;; Registers used:
  1463 ;;		wreg, status,2, status,0
  1464 ;; Tracked objects:
  1465 ;;		On entry : 0/0
  1466 ;;		On exit  : 0/0
  1467 ;;		Unchanged: 0/0
  1468 ;; Data sizes:     COMRAM   BANK0   BANK1   BANK2   BANK3   BANK4   BANK5   BANK6   BANK7
  1469 ;;      Params:         4       0       0       0       0       0       0       0       0
  1470 ;;      Locals:         6       0       0       0       0       0       0       0       0
  1471 ;;      Temps:          4       0       0       0       0       0       0       0       0
  1472 ;;      Totals:        14       0       0       0       0       0       0       0       0
  1473 ;;Total ram usage:       14 bytes
  1474 ;; Hardware stack levels used: 1
  1475 ;; This function calls:
  1476 ;;		Nothing
  1477 ;; This function is called by:
  1478 ;;		_tocar_nota
  1479 ;;		_silencio
  1480 ;; This function uses a non-reentrant model
  1481 ;;
  1482                           
  1483                           	psect	text4
  1484  007120                     __ptext4:
  1485                           	callstack 0
  1486  007120                     ___xxtofl:
  1487                           	callstack 28
  1488                           
  1489                           ;incstack = 0
  1490                           ;___xxtofl@sign stored from wreg
  1491  007120  6E09               	movwf	___xxtofl@sign^0,c
  1492  007122  5009               	movf	___xxtofl@sign^0,w,c
  1493  007124  B4D8               	btfsc	status,2,c
  1494  007126  EF97  F038         	goto	u1571
  1495  00712A  EF99  F038         	goto	u1570
  1496  00712E                     u1571:
  1497  00712E  EFBB  F038         	goto	l754
  1498  007132                     u1570:
  1499  007132  BE04               	btfsc	(___xxtofl@val+3)^0,7,c
  1500  007134  EFA0  F038         	goto	u1580
  1501  007138  EF9E  F038         	goto	u1581
  1502  00713C                     u1581:
  1503  00713C  EFBB  F038         	goto	l754
  1504  007140                     u1580:
  1505  007140  C001  F005         	movff	___xxtofl@val,??___xxtofl
  1506  007144  C002  F006         	movff	___xxtofl@val+1,??___xxtofl+1
  1507  007148  C003  F007         	movff	___xxtofl@val+2,??___xxtofl+2
  1508  00714C  C004  F008         	movff	___xxtofl@val+3,??___xxtofl+3
  1509  007150  1E05               	comf	??___xxtofl^0,f,c
  1510  007152  1E06               	comf	(??___xxtofl+1)^0,f,c
  1511  007154  1E07               	comf	(??___xxtofl+2)^0,f,c
  1512  007156  1E08               	comf	(??___xxtofl+3)^0,f,c
  1513  007158  2A05               	incf	??___xxtofl^0,f,c
  1514  00715A  0E00               	movlw	0
  1515  00715C  2206               	addwfc	(??___xxtofl+1)^0,f,c
  1516  00715E  2207               	addwfc	(??___xxtofl+2)^0,f,c
  1517  007160  2208               	addwfc	(??___xxtofl+3)^0,f,c
  1518  007162  C005  F00B         	movff	??___xxtofl,___xxtofl@arg
  1519  007166  C006  F00C         	movff	??___xxtofl+1,___xxtofl@arg+1
  1520  00716A  C007  F00D         	movff	??___xxtofl+2,___xxtofl@arg+2
  1521  00716E  C008  F00E         	movff	??___xxtofl+3,___xxtofl@arg+3
  1522  007172  EFC3  F038         	goto	l1778
  1523  007176                     l754:
  1524  007176  C001  F00B         	movff	___xxtofl@val,___xxtofl@arg
  1525  00717A  C002  F00C         	movff	___xxtofl@val+1,___xxtofl@arg+1
  1526  00717E  C003  F00D         	movff	___xxtofl@val+2,___xxtofl@arg+2
  1527  007182  C004  F00E         	movff	___xxtofl@val+3,___xxtofl@arg+3
  1528  007186                     l1778:
  1529  007186  5001               	movf	___xxtofl@val^0,w,c
  1530  007188  1002               	iorwf	(___xxtofl@val+1)^0,w,c
  1531  00718A  1003               	iorwf	(___xxtofl@val+2)^0,w,c
  1532  00718C  1004               	iorwf	(___xxtofl@val+3)^0,w,c
  1533  00718E  A4D8               	btfss	status,2,c
  1534  007190  EFCC  F038         	goto	u1591
  1535  007194  EFCE  F038         	goto	u1590
  1536  007198                     u1591:
  1537  007198  EFD8  F038         	goto	l1784
  1538  00719C                     u1590:
  1539  00719C  0E00               	movlw	0
  1540  00719E  6E01               	movwf	?___xxtofl^0,c
  1541  0071A0  0E00               	movlw	0
  1542  0071A2  6E02               	movwf	(?___xxtofl+1)^0,c
  1543  0071A4  0E00               	movlw	0
  1544  0071A6  6E03               	movwf	(?___xxtofl+2)^0,c
  1545  0071A8  0E00               	movlw	0
  1546  0071AA  6E04               	movwf	(?___xxtofl+3)^0,c
  1547  0071AC  EF69  F039         	goto	l757
  1548  0071B0                     l1784:
  1549  0071B0  0E96               	movlw	150
  1550  0071B2  6E0A               	movwf	___xxtofl@exp^0,c
  1551  0071B4  EFE2  F038         	goto	l1788
  1552  0071B8                     l1786:
  1553  0071B8  2A0A               	incf	___xxtofl@exp^0,f,c
  1554  0071BA  90D8               	bcf	status,0,c
  1555  0071BC  320E               	rrcf	(___xxtofl@arg+3)^0,f,c
  1556  0071BE  320D               	rrcf	(___xxtofl@arg+2)^0,f,c
  1557  0071C0  320C               	rrcf	(___xxtofl@arg+1)^0,f,c
  1558  0071C2  320B               	rrcf	___xxtofl@arg^0,f,c
  1559  0071C4                     l1788:
  1560  0071C4  0E00               	movlw	0
  1561  0071C6  140B               	andwf	___xxtofl@arg^0,w,c
  1562  0071C8  6E05               	movwf	??___xxtofl^0,c
  1563  0071CA  0E00               	movlw	0
  1564  0071CC  140C               	andwf	(___xxtofl@arg+1)^0,w,c
  1565  0071CE  6E06               	movwf	(??___xxtofl+1)^0,c
  1566  0071D0  0E00               	movlw	0
  1567  0071D2  140D               	andwf	(___xxtofl@arg+2)^0,w,c
  1568  0071D4  6E07               	movwf	(??___xxtofl+2)^0,c
  1569  0071D6  0EFE               	movlw	254
  1570  0071D8  140E               	andwf	(___xxtofl@arg+3)^0,w,c
  1571  0071DA  6E08               	movwf	(??___xxtofl+3)^0,c
  1572  0071DC  5005               	movf	??___xxtofl^0,w,c
  1573  0071DE  1006               	iorwf	(??___xxtofl+1)^0,w,c
  1574  0071E0  1007               	iorwf	(??___xxtofl+2)^0,w,c
  1575  0071E2  1008               	iorwf	(??___xxtofl+3)^0,w,c
  1576  0071E4  A4D8               	btfss	status,2,c
  1577  0071E6  EFF7  F038         	goto	u1601
  1578  0071EA  EFF9  F038         	goto	u1600
  1579  0071EE                     u1601:
  1580  0071EE  EFDC  F038         	goto	l1786
  1581  0071F2                     u1600:
  1582  0071F2  EF07  F039         	goto	l761
  1583  0071F6                     l1790:
  1584  0071F6  2A0A               	incf	___xxtofl@exp^0,f,c
  1585  0071F8  0E01               	movlw	1
  1586  0071FA  260B               	addwf	___xxtofl@arg^0,f,c
  1587  0071FC  0E00               	movlw	0
  1588  0071FE  220C               	addwfc	(___xxtofl@arg+1)^0,f,c
  1589  007200  220D               	addwfc	(___xxtofl@arg+2)^0,f,c
  1590  007202  220E               	addwfc	(___xxtofl@arg+3)^0,f,c
  1591  007204  90D8               	bcf	status,0,c
  1592  007206  320E               	rrcf	(___xxtofl@arg+3)^0,f,c
  1593  007208  320D               	rrcf	(___xxtofl@arg+2)^0,f,c
  1594  00720A  320C               	rrcf	(___xxtofl@arg+1)^0,f,c
  1595  00720C  320B               	rrcf	___xxtofl@arg^0,f,c
  1596  00720E                     l761:
  1597  00720E  0E00               	movlw	0
  1598  007210  140B               	andwf	___xxtofl@arg^0,w,c
  1599  007212  6E05               	movwf	??___xxtofl^0,c
  1600  007214  0E00               	movlw	0
  1601  007216  140C               	andwf	(___xxtofl@arg+1)^0,w,c
  1602  007218  6E06               	movwf	(??___xxtofl+1)^0,c
  1603  00721A  0E00               	movlw	0
  1604  00721C  140D               	andwf	(___xxtofl@arg+2)^0,w,c
  1605  00721E  6E07               	movwf	(??___xxtofl+2)^0,c
  1606  007220  0EFF               	movlw	255
  1607  007222  140E               	andwf	(___xxtofl@arg+3)^0,w,c
  1608  007224  6E08               	movwf	(??___xxtofl+3)^0,c
  1609  007226  5005               	movf	??___xxtofl^0,w,c
  1610  007228  1006               	iorwf	(??___xxtofl+1)^0,w,c
  1611  00722A  1007               	iorwf	(??___xxtofl+2)^0,w,c
  1612  00722C  1008               	iorwf	(??___xxtofl+3)^0,w,c
  1613  00722E  A4D8               	btfss	status,2,c
  1614  007230  EF1C  F039         	goto	u1611
  1615  007234  EF1E  F039         	goto	u1610
  1616  007238                     u1611:
  1617  007238  EFFB  F038         	goto	l1790
  1618  00723C                     u1610:
  1619  00723C  EF26  F039         	goto	l1798
  1620  007240                     l1796:
  1621  007240  060A               	decf	___xxtofl@exp^0,f,c
  1622  007242  90D8               	bcf	status,0,c
  1623  007244  360B               	rlcf	___xxtofl@arg^0,f,c
  1624  007246  360C               	rlcf	(___xxtofl@arg+1)^0,f,c
  1625  007248  360D               	rlcf	(___xxtofl@arg+2)^0,f,c
  1626  00724A  360E               	rlcf	(___xxtofl@arg+3)^0,f,c
  1627  00724C                     l1798:
  1628  00724C  BE0D               	btfsc	(___xxtofl@arg+2)^0,7,c
  1629  00724E  EF2B  F039         	goto	u1621
  1630  007252  EF2D  F039         	goto	u1620
  1631  007256                     u1621:
  1632  007256  EF35  F039         	goto	l768
  1633  00725A                     u1620:
  1634  00725A  0E02               	movlw	2
  1635  00725C  600A               	cpfslt	___xxtofl@exp^0,c
  1636  00725E  EF33  F039         	goto	u1631
  1637  007262  EF35  F039         	goto	u1630
  1638  007266                     u1631:
  1639  007266  EF20  F039         	goto	l1796
  1640  00726A                     u1630:
  1641  00726A                     l768:
  1642  00726A  B00A               	btfsc	___xxtofl@exp^0,0,c
  1643  00726C  EF3A  F039         	goto	u1641
  1644  007270  EF3C  F039         	goto	u1640
  1645  007274                     u1641:
  1646  007274  EF3D  F039         	goto	l1804
  1647  007278                     u1640:
  1648  007278  9E0D               	bcf	(___xxtofl@arg+2)^0,7,c
  1649  00727A                     l1804:
  1650  00727A  90D8               	bcf	status,0,c
  1651  00727C  320A               	rrcf	___xxtofl@exp^0,f,c
  1652  00727E  C00A  F005         	movff	___xxtofl@exp,??___xxtofl
  1653  007282  6A06               	clrf	(??___xxtofl+1)^0,c
  1654  007284  6A07               	clrf	(??___xxtofl+2)^0,c
  1655  007286  6A08               	clrf	(??___xxtofl+3)^0,c
  1656  007288  C005  F008         	movff	??___xxtofl,??___xxtofl+3
  1657  00728C  6A07               	clrf	(??___xxtofl+2)^0,c
  1658  00728E  6A06               	clrf	(??___xxtofl+1)^0,c
  1659  007290  6A05               	clrf	??___xxtofl^0,c
  1660  007292  5005               	movf	??___xxtofl^0,w,c
  1661  007294  120B               	iorwf	___xxtofl@arg^0,f,c
  1662  007296  5006               	movf	(??___xxtofl+1)^0,w,c
  1663  007298  120C               	iorwf	(___xxtofl@arg+1)^0,f,c
  1664  00729A  5007               	movf	(??___xxtofl+2)^0,w,c
  1665  00729C  120D               	iorwf	(___xxtofl@arg+2)^0,f,c
  1666  00729E  5008               	movf	(??___xxtofl+3)^0,w,c
  1667  0072A0  120E               	iorwf	(___xxtofl@arg+3)^0,f,c
  1668  0072A2  5009               	movf	___xxtofl@sign^0,w,c
  1669  0072A4  B4D8               	btfsc	status,2,c
  1670  0072A6  EF57  F039         	goto	u1651
  1671  0072AA  EF59  F039         	goto	u1650
  1672  0072AE                     u1651:
  1673  0072AE  EF61  F039         	goto	l1814
  1674  0072B2                     u1650:
  1675  0072B2  BE04               	btfsc	(___xxtofl@val+3)^0,7,c
  1676  0072B4  EF60  F039         	goto	u1660
  1677  0072B8  EF5E  F039         	goto	u1661
  1678  0072BC                     u1661:
  1679  0072BC  EF61  F039         	goto	l1814
  1680  0072C0                     u1660:
  1681  0072C0  8E0E               	bsf	(___xxtofl@arg+3)^0,7,c
  1682  0072C2                     l1814:
  1683  0072C2  C00B  F001         	movff	___xxtofl@arg,?___xxtofl
  1684  0072C6  C00C  F002         	movff	___xxtofl@arg+1,?___xxtofl+1
  1685  0072CA  C00D  F003         	movff	___xxtofl@arg+2,?___xxtofl+2
  1686  0072CE  C00E  F004         	movff	___xxtofl@arg+3,?___xxtofl+3
  1687  0072D2                     l757:
  1688  0072D2  0012               	return		;funcret
  1689  0072D4                     __end_of___xxtofl:
  1690                           	callstack 0
  1691                           
  1692 ;; *************** function ___fltol *****************
  1693 ;; Defined at:
  1694 ;;		line 43 in file "C:\Program Files\Microchip\xc8\v2.32\pic\sources\c99\common\fltol.c"
  1695 ;; Parameters:    Size  Location     Type
  1696 ;;  f1              4   39[COMRAM] unsigned char 
  1697 ;; Auto vars:     Size  Location     Type
  1698 ;;  exp1            1   48[COMRAM] unsigned char 
  1699 ;;  sign1           1   47[COMRAM] unsigned char 
  1700 ;; Return value:  Size  Location     Type
  1701 ;;                  4   39[COMRAM] long 
  1702 ;; Registers used:
  1703 ;;		wreg, status,2, status,0
  1704 ;; Tracked objects:
  1705 ;;		On entry : 0/0
  1706 ;;		On exit  : 0/0
  1707 ;;		Unchanged: 0/0
  1708 ;; Data sizes:     COMRAM   BANK0   BANK1   BANK2   BANK3   BANK4   BANK5   BANK6   BANK7
  1709 ;;      Params:         4       0       0       0       0       0       0       0       0
  1710 ;;      Locals:         2       0       0       0       0       0       0       0       0
  1711 ;;      Temps:          4       0       0       0       0       0       0       0       0
  1712 ;;      Totals:        10       0       0       0       0       0       0       0       0
  1713 ;;Total ram usage:       10 bytes
  1714 ;; Hardware stack levels used: 1
  1715 ;; This function calls:
  1716 ;;		Nothing
  1717 ;; This function is called by:
  1718 ;;		_tocar_nota
  1719 ;;		_silencio
  1720 ;; This function uses a non-reentrant model
  1721 ;;
  1722                           
  1723                           	psect	text5
  1724  006D3A                     __ptext5:
  1725                           	callstack 0
  1726  006D3A                     ___fltol:
  1727                           	callstack 28
  1728  006D3A  342A               	rlcf	(___fltol@f1+2)^0,w,c
  1729  006D3C  342B               	rlcf	(___fltol@f1+3)^0,w,c
  1730  006D3E  6E31               	movwf	___fltol@exp1^0,c
  1731  006D40  5031               	movf	___fltol@exp1^0,w,c
  1732  006D42  A4D8               	btfss	status,2,c
  1733  006D44  EFA6  F036         	goto	u1501
  1734  006D48  EFA8  F036         	goto	u1500
  1735  006D4C                     u1501:
  1736  006D4C  EFB2  F036         	goto	l1734
  1737  006D50                     u1500:
  1738  006D50                     l1730:
  1739  006D50  0E00               	movlw	0
  1740  006D52  6E28               	movwf	?___fltol^0,c
  1741  006D54  0E00               	movlw	0
  1742  006D56  6E29               	movwf	(?___fltol+1)^0,c
  1743  006D58  0E00               	movlw	0
  1744  006D5A  6E2A               	movwf	(?___fltol+2)^0,c
  1745  006D5C  0E00               	movlw	0
  1746  006D5E  6E2B               	movwf	(?___fltol+3)^0,c
  1747  006D60  EF1F  F037         	goto	l396
  1748  006D64                     l1734:
  1749  006D64  C028  F02C         	movff	___fltol@f1,??___fltol
  1750  006D68  C029  F02D         	movff	___fltol@f1+1,??___fltol+1
  1751  006D6C  C02A  F02E         	movff	___fltol@f1+2,??___fltol+2
  1752  006D70  C02B  F02F         	movff	___fltol@f1+3,??___fltol+3
  1753  006D74  0E20               	movlw	32
  1754  006D76  EFC2  F036         	goto	u1510
  1755  006D7A                     u1515:
  1756  006D7A  90D8               	bcf	status,0,c
  1757  006D7C  322F               	rrcf	(??___fltol+3)^0,f,c
  1758  006D7E  322E               	rrcf	(??___fltol+2)^0,f,c
  1759  006D80  322D               	rrcf	(??___fltol+1)^0,f,c
  1760  006D82  322C               	rrcf	??___fltol^0,f,c
  1761  006D84                     u1510:
  1762  006D84  2EE8               	decfsz	wreg,f,c
  1763  006D86  EFBD  F036         	goto	u1515
  1764  006D8A  502C               	movf	??___fltol^0,w,c
  1765  006D8C  6E30               	movwf	___fltol@sign1^0,c
  1766  006D8E  8E2A               	bsf	(___fltol@f1+2)^0,7,c
  1767  006D90  0EFF               	movlw	255
  1768  006D92  1628               	andwf	___fltol@f1^0,f,c
  1769  006D94  0EFF               	movlw	255
  1770  006D96  1629               	andwf	(___fltol@f1+1)^0,f,c
  1771  006D98  0EFF               	movlw	255
  1772  006D9A  162A               	andwf	(___fltol@f1+2)^0,f,c
  1773  006D9C  0E00               	movlw	0
  1774  006D9E  162B               	andwf	(___fltol@f1+3)^0,f,c
  1775  006DA0  0E96               	movlw	150
  1776  006DA2  5E31               	subwf	___fltol@exp1^0,f,c
  1777  006DA4  BE31               	btfsc	___fltol@exp1^0,7,c
  1778  006DA6  EFD9  F036         	goto	u1520
  1779  006DAA  EFD7  F036         	goto	u1521
  1780  006DAE                     u1521:
  1781  006DAE  EFEF  F036         	goto	l1754
  1782  006DB2                     u1520:
  1783  006DB2  5031               	movf	___fltol@exp1^0,w,c
  1784  006DB4  0A80               	xorlw	128
  1785  006DB6  0F97               	addlw	151
  1786  006DB8  B0D8               	btfsc	status,0,c
  1787  006DBA  EFE1  F036         	goto	u1531
  1788  006DBE  EFE3  F036         	goto	u1530
  1789  006DC2                     u1531:
  1790  006DC2  EFE5  F036         	goto	l1750
  1791  006DC6                     u1530:
  1792  006DC6  EFA8  F036         	goto	l1730
  1793  006DCA                     l1750:
  1794  006DCA  90D8               	bcf	status,0,c
  1795  006DCC  322B               	rrcf	(___fltol@f1+3)^0,f,c
  1796  006DCE  322A               	rrcf	(___fltol@f1+2)^0,f,c
  1797  006DD0  3229               	rrcf	(___fltol@f1+1)^0,f,c
  1798  006DD2  3228               	rrcf	___fltol@f1^0,f,c
  1799  006DD4  3E31               	incfsz	___fltol@exp1^0,f,c
  1800  006DD6  EFE5  F036         	goto	l1750
  1801  006DDA  EF07  F037         	goto	l1764
  1802  006DDE                     l1754:
  1803  006DDE  0E1F               	movlw	31
  1804  006DE0  6431               	cpfsgt	___fltol@exp1^0,c
  1805  006DE2  EFF5  F036         	goto	u1541
  1806  006DE6  EFF7  F036         	goto	u1540
  1807  006DEA                     u1541:
  1808  006DEA  EFFF  F036         	goto	l1762
  1809  006DEE                     u1540:
  1810  006DEE  EFA8  F036         	goto	l1730
  1811  006DF2                     l1760:
  1812  006DF2  90D8               	bcf	status,0,c
  1813  006DF4  3628               	rlcf	___fltol@f1^0,f,c
  1814  006DF6  3629               	rlcf	(___fltol@f1+1)^0,f,c
  1815  006DF8  362A               	rlcf	(___fltol@f1+2)^0,f,c
  1816  006DFA  362B               	rlcf	(___fltol@f1+3)^0,f,c
  1817  006DFC  0631               	decf	___fltol@exp1^0,f,c
  1818  006DFE                     l1762:
  1819  006DFE  5031               	movf	___fltol@exp1^0,w,c
  1820  006E00  A4D8               	btfss	status,2,c
  1821  006E02  EF05  F037         	goto	u1551
  1822  006E06  EF07  F037         	goto	u1550
  1823  006E0A                     u1551:
  1824  006E0A  EFF9  F036         	goto	l1760
  1825  006E0E                     u1550:
  1826  006E0E                     l1764:
  1827  006E0E  5030               	movf	___fltol@sign1^0,w,c
  1828  006E10  B4D8               	btfsc	status,2,c
  1829  006E12  EF0D  F037         	goto	u1561
  1830  006E16  EF0F  F037         	goto	u1560
  1831  006E1A                     u1561:
  1832  006E1A  EF17  F037         	goto	l1768
  1833  006E1E                     u1560:
  1834  006E1E  1E2B               	comf	(___fltol@f1+3)^0,f,c
  1835  006E20  1E2A               	comf	(___fltol@f1+2)^0,f,c
  1836  006E22  1E29               	comf	(___fltol@f1+1)^0,f,c
  1837  006E24  6C28               	negf	___fltol@f1^0,c
  1838  006E26  0E00               	movlw	0
  1839  006E28  2229               	addwfc	(___fltol@f1+1)^0,f,c
  1840  006E2A  222A               	addwfc	(___fltol@f1+2)^0,f,c
  1841  006E2C  222B               	addwfc	(___fltol@f1+3)^0,f,c
  1842  006E2E                     l1768:
  1843  006E2E  C028  F028         	movff	___fltol@f1,?___fltol
  1844  006E32  C029  F029         	movff	___fltol@f1+1,?___fltol+1
  1845  006E36  C02A  F02A         	movff	___fltol@f1+2,?___fltol+2
  1846  006E3A  C02B  F02B         	movff	___fltol@f1+3,?___fltol+3
  1847  006E3E                     l396:
  1848  006E3E  0012               	return		;funcret
  1849  006E40                     __end_of___fltol:
  1850                           	callstack 0
  1851                           
  1852 ;; *************** function ___flsub *****************
  1853 ;; Defined at:
  1854 ;;		line 245 in file "C:\Program Files\Microchip\xc8\v2.32\pic\sources\c99\common\sprcadd.c"
  1855 ;; Parameters:    Size  Location     Type
  1856 ;;  b               4   39[COMRAM] long 
  1857 ;;  a               4   43[COMRAM] long 
  1858 ;; Auto vars:     Size  Location     Type
  1859 ;;		None
  1860 ;; Return value:  Size  Location     Type
  1861 ;;                  4   39[COMRAM] long 
  1862 ;; Registers used:
  1863 ;;		wreg, status,2, status,0, cstack
  1864 ;; Tracked objects:
  1865 ;;		On entry : 0/0
  1866 ;;		On exit  : 0/0
  1867 ;;		Unchanged: 0/0
  1868 ;; Data sizes:     COMRAM   BANK0   BANK1   BANK2   BANK3   BANK4   BANK5   BANK6   BANK7
  1869 ;;      Params:         8       0       0       0       0       0       0       0       0
  1870 ;;      Locals:         0       0       0       0       0       0       0       0       0
  1871 ;;      Temps:          0       0       0       0       0       0       0       0       0
  1872 ;;      Totals:         8       0       0       0       0       0       0       0       0
  1873 ;;Total ram usage:        8 bytes
  1874 ;; Hardware stack levels used: 1
  1875 ;; Hardware stack levels required when called: 1
  1876 ;; This function calls:
  1877 ;;		___fladd
  1878 ;; This function is called by:
  1879 ;;		_tocar_nota
  1880 ;;		_silencio
  1881 ;; This function uses a non-reentrant model
  1882 ;;
  1883                           
  1884                           	psect	text6
  1885  006BEA                     __ptext6:
  1886                           	callstack 0
  1887  006BEA                     ___flsub:
  1888                           	callstack 27
  1889  006BEA  0E00               	movlw	0
  1890  006BEC  1A2C               	xorwf	___flsub@a^0,f,c
  1891  006BEE  0E00               	movlw	0
  1892  006BF0  1A2D               	xorwf	(___flsub@a+1)^0,f,c
  1893  006BF2  0E00               	movlw	0
  1894  006BF4  1A2E               	xorwf	(___flsub@a+2)^0,f,c
  1895  006BF6  0E80               	movlw	128
  1896  006BF8  1A2F               	xorwf	(___flsub@a+3)^0,f,c
  1897  006BFA  C028  F001         	movff	___flsub@b,___fladd@b
  1898  006BFE  C029  F002         	movff	___flsub@b+1,___fladd@b+1
  1899  006C02  C02A  F003         	movff	___flsub@b+2,___fladd@b+2
  1900  006C06  C02B  F004         	movff	___flsub@b+3,___fladd@b+3
  1901  006C0A  C02C  F005         	movff	___flsub@a,___fladd@a
  1902  006C0E  C02D  F006         	movff	___flsub@a+1,___fladd@a+1
  1903  006C12  C02E  F007         	movff	___flsub@a+2,___fladd@a+2
  1904  006C16  C02F  F008         	movff	___flsub@a+3,___fladd@a+3
  1905  006C1A  EC37  F03B         	call	___fladd	;wreg free
  1906  006C1E  C001  F028         	movff	?___fladd,?___flsub
  1907  006C22  C002  F029         	movff	?___fladd+1,?___flsub+1
  1908  006C26  C003  F02A         	movff	?___fladd+2,?___flsub+2
  1909  006C2A  C004  F02B         	movff	?___fladd+3,?___flsub+3
  1910  006C2E  0012               	return		;funcret
  1911  006C30                     __end_of___flsub:
  1912                           	callstack 0
  1913                           
  1914 ;; *************** function ___fladd *****************
  1915 ;; Defined at:
  1916 ;;		line 10 in file "C:\Program Files\Microchip\xc8\v2.32\pic\sources\c99\common\sprcadd.c"
  1917 ;; Parameters:    Size  Location     Type
  1918 ;;  b               4    0[COMRAM] long 
  1919 ;;  a               4    4[COMRAM] long 
  1920 ;; Auto vars:     Size  Location     Type
  1921 ;;  grs             1   15[COMRAM] unsigned char 
  1922 ;;  bexp            1   14[COMRAM] unsigned char 
  1923 ;;  aexp            1   13[COMRAM] unsigned char 
  1924 ;;  signs           1   12[COMRAM] unsigned char 
  1925 ;; Return value:  Size  Location     Type
  1926 ;;                  4    0[COMRAM] unsigned char 
  1927 ;; Registers used:
  1928 ;;		wreg, status,2, status,0
  1929 ;; Tracked objects:
  1930 ;;		On entry : 0/0
  1931 ;;		On exit  : 0/0
  1932 ;;		Unchanged: 0/0
  1933 ;; Data sizes:     COMRAM   BANK0   BANK1   BANK2   BANK3   BANK4   BANK5   BANK6   BANK7
  1934 ;;      Params:         8       0       0       0       0       0       0       0       0
  1935 ;;      Locals:         4       0       0       0       0       0       0       0       0
  1936 ;;      Temps:          4       0       0       0       0       0       0       0       0
  1937 ;;      Totals:        16       0       0       0       0       0       0       0       0
  1938 ;;Total ram usage:       16 bytes
  1939 ;; Hardware stack levels used: 1
  1940 ;; This function calls:
  1941 ;;		Nothing
  1942 ;; This function is called by:
  1943 ;;		___flsub
  1944 ;; This function uses a non-reentrant model
  1945 ;;
  1946                           
  1947                           	psect	text7
  1948  00766E                     __ptext7:
  1949                           	callstack 0
  1950  00766E                     ___fladd:
  1951                           	callstack 27
  1952  00766E  5004               	movf	(___fladd@b+3)^0,w,c
  1953  007670  0B80               	andlw	128
  1954  007672  6E0D               	movwf	___fladd@signs^0,c
  1955  007674  5004               	movf	(___fladd@b+3)^0,w,c
  1956  007676  2404               	addwf	(___fladd@b+3)^0,w,c
  1957  007678  6E0F               	movwf	___fladd@bexp^0,c
  1958  00767A  AE03               	btfss	(___fladd@b+2)^0,7,c
  1959  00767C  EF42  F03B         	goto	u881
  1960  007680  EF44  F03B         	goto	u880
  1961  007684                     u881:
  1962  007684  EF45  F03B         	goto	l1388
  1963  007688                     u880:
  1964  007688  800F               	bsf	___fladd@bexp^0,0,c
  1965  00768A                     l1388:
  1966  00768A  500F               	movf	___fladd@bexp^0,w,c
  1967  00768C  B4D8               	btfsc	status,2,c
  1968  00768E  EF4B  F03B         	goto	u891
  1969  007692  EF4D  F03B         	goto	u890
  1970  007696                     u891:
  1971  007696  EF62  F03B         	goto	l1398
  1972  00769A                     u890:
  1973  00769A  280F               	incf	___fladd@bexp^0,w,c
  1974  00769C  A4D8               	btfss	status,2,c
  1975  00769E  EF53  F03B         	goto	u901
  1976  0076A2  EF55  F03B         	goto	u900
  1977  0076A6                     u901:
  1978  0076A6  EF5D  F03B         	goto	l1394
  1979  0076AA                     u900:
  1980  0076AA  0E00               	movlw	0
  1981  0076AC  6E01               	movwf	___fladd@b^0,c
  1982  0076AE  0E00               	movlw	0
  1983  0076B0  6E02               	movwf	(___fladd@b+1)^0,c
  1984  0076B2  0E00               	movlw	0
  1985  0076B4  6E03               	movwf	(___fladd@b+2)^0,c
  1986  0076B6  0E00               	movlw	0
  1987  0076B8  6E04               	movwf	(___fladd@b+3)^0,c
  1988  0076BA                     l1394:
  1989  0076BA  8E03               	bsf	(___fladd@b+2)^0,7,c
  1990  0076BC  0E00               	movlw	0
  1991  0076BE  6E04               	movwf	(___fladd@b+3)^0,c
  1992  0076C0  EF6A  F03B         	goto	l1400
  1993  0076C4                     l1398:
  1994  0076C4  0E00               	movlw	0
  1995  0076C6  6E01               	movwf	___fladd@b^0,c
  1996  0076C8  0E00               	movlw	0
  1997  0076CA  6E02               	movwf	(___fladd@b+1)^0,c
  1998  0076CC  0E00               	movlw	0
  1999  0076CE  6E03               	movwf	(___fladd@b+2)^0,c
  2000  0076D0  0E00               	movlw	0
  2001  0076D2  6E04               	movwf	(___fladd@b+3)^0,c
  2002  0076D4                     l1400:
  2003  0076D4  5008               	movf	(___fladd@a+3)^0,w,c
  2004  0076D6  0B80               	andlw	128
  2005  0076D8  6E0E               	movwf	___fladd@aexp^0,c
  2006  0076DA  500D               	movf	___fladd@signs^0,w,c
  2007  0076DC  180E               	xorwf	___fladd@aexp^0,w,c
  2008  0076DE  B4D8               	btfsc	status,2,c
  2009  0076E0  EF74  F03B         	goto	u911
  2010  0076E4  EF76  F03B         	goto	u910
  2011  0076E8                     u911:
  2012  0076E8  EF77  F03B         	goto	l1406
  2013  0076EC                     u910:
  2014  0076EC  8C0D               	bsf	___fladd@signs^0,6,c
  2015  0076EE                     l1406:
  2016  0076EE  5008               	movf	(___fladd@a+3)^0,w,c
  2017  0076F0  2408               	addwf	(___fladd@a+3)^0,w,c
  2018  0076F2  6E0E               	movwf	___fladd@aexp^0,c
  2019  0076F4  AE07               	btfss	(___fladd@a+2)^0,7,c
  2020  0076F6  EF7F  F03B         	goto	u921
  2021  0076FA  EF81  F03B         	goto	u920
  2022  0076FE                     u921:
  2023  0076FE  EF82  F03B         	goto	l1412
  2024  007702                     u920:
  2025  007702  800E               	bsf	___fladd@aexp^0,0,c
  2026  007704                     l1412:
  2027  007704  500E               	movf	___fladd@aexp^0,w,c
  2028  007706  B4D8               	btfsc	status,2,c
  2029  007708  EF88  F03B         	goto	u931
  2030  00770C  EF8A  F03B         	goto	u930
  2031  007710                     u931:
  2032  007710  EF9F  F03B         	goto	l1422
  2033  007714                     u930:
  2034  007714  280E               	incf	___fladd@aexp^0,w,c
  2035  007716  A4D8               	btfss	status,2,c
  2036  007718  EF90  F03B         	goto	u941
  2037  00771C  EF92  F03B         	goto	u940
  2038  007720                     u941:
  2039  007720  EF9A  F03B         	goto	l1418
  2040  007724                     u940:
  2041  007724  0E00               	movlw	0
  2042  007726  6E05               	movwf	___fladd@a^0,c
  2043  007728  0E00               	movlw	0
  2044  00772A  6E06               	movwf	(___fladd@a+1)^0,c
  2045  00772C  0E00               	movlw	0
  2046  00772E  6E07               	movwf	(___fladd@a+2)^0,c
  2047  007730  0E00               	movlw	0
  2048  007732  6E08               	movwf	(___fladd@a+3)^0,c
  2049  007734                     l1418:
  2050  007734  8E07               	bsf	(___fladd@a+2)^0,7,c
  2051  007736  0E00               	movlw	0
  2052  007738  6E08               	movwf	(___fladd@a+3)^0,c
  2053  00773A  EFA7  F03B         	goto	l1424
  2054  00773E                     l1422:
  2055  00773E  0E00               	movlw	0
  2056  007740  6E05               	movwf	___fladd@a^0,c
  2057  007742  0E00               	movlw	0
  2058  007744  6E06               	movwf	(___fladd@a+1)^0,c
  2059  007746  0E00               	movlw	0
  2060  007748  6E07               	movwf	(___fladd@a+2)^0,c
  2061  00774A  0E00               	movlw	0
  2062  00774C  6E08               	movwf	(___fladd@a+3)^0,c
  2063  00774E                     l1424:
  2064  00774E  500F               	movf	___fladd@bexp^0,w,c
  2065  007750  5C0E               	subwf	___fladd@aexp^0,w,c
  2066  007752  B0D8               	btfsc	status,0,c
  2067  007754  EFAE  F03B         	goto	u951
  2068  007758  EFB0  F03B         	goto	u950
  2069  00775C                     u951:
  2070  00775C  EFD7  F03B         	goto	l1460
  2071  007760                     u950:
  2072  007760  AC0D               	btfss	___fladd@signs^0,6,c
  2073  007762  EFB5  F03B         	goto	u961
  2074  007766  EFB7  F03B         	goto	u960
  2075  00776A                     u961:
  2076  00776A  EFB9  F03B         	goto	l1430
  2077  00776E                     u960:
  2078  00776E  0E80               	movlw	128
  2079  007770  1A0D               	xorwf	___fladd@signs^0,f,c
  2080  007772                     l1430:
  2081  007772  C00F  F010         	movff	___fladd@bexp,___fladd@grs
  2082  007776  C00E  F00F         	movff	___fladd@aexp,___fladd@bexp
  2083  00777A  C010  F00E         	movff	___fladd@grs,___fladd@aexp
  2084  00777E  C001  F010         	movff	___fladd@b,___fladd@grs
  2085  007782  C005  F001         	movff	___fladd@a,___fladd@b
  2086  007786  C010  F005         	movff	___fladd@grs,___fladd@a
  2087  00778A  C002  F010         	movff	___fladd@b+1,___fladd@grs
  2088  00778E  C006  F002         	movff	___fladd@a+1,___fladd@b+1
  2089  007792  C010  F006         	movff	___fladd@grs,___fladd@a+1
  2090  007796  C003  F010         	movff	___fladd@b+2,___fladd@grs
  2091  00779A  C007  F003         	movff	___fladd@a+2,___fladd@b+2
  2092  00779E  C010  F007         	movff	___fladd@grs,___fladd@a+2
  2093  0077A2  C004  F010         	movff	___fladd@b+3,___fladd@grs
  2094  0077A6  C008  F004         	movff	___fladd@a+3,___fladd@b+3
  2095  0077AA  C010  F008         	movff	___fladd@grs,___fladd@a+3
  2096  0077AE                     l1460:
  2097  0077AE  0E00               	movlw	0
  2098  0077B0  6E10               	movwf	___fladd@grs^0,c
  2099  0077B2  500F               	movf	___fladd@bexp^0,w,c
  2100  0077B4  C00E  F009         	movff	___fladd@aexp,??___fladd
  2101  0077B8  6A0A               	clrf	(??___fladd+1)^0,c
  2102  0077BA  5E09               	subwf	??___fladd^0,f,c
  2103  0077BC  0E00               	movlw	0
  2104  0077BE  5A0A               	subwfb	(??___fladd+1)^0,f,c
  2105  0077C0  BE0A               	btfsc	(??___fladd+1)^0,7,c
  2106  0077C2  EFEC  F03B         	goto	u971
  2107  0077C6  500A               	movf	(??___fladd+1)^0,w,c
  2108  0077C8  E109               	bnz	u970
  2109  0077CA  0E1A               	movlw	26
  2110  0077CC  5C09               	subwf	??___fladd^0,w,c
  2111  0077CE  A0D8               	btfss	status,0,c
  2112  0077D0  EFEC  F03B         	goto	u971
  2113  0077D4  EFEE  F03B         	goto	u970
  2114  0077D8                     u971:
  2115  0077D8  EF25  F03C         	goto	l628
  2116  0077DC                     u970:
  2117  0077DC  5001               	movf	___fladd@b^0,w,c
  2118  0077DE  1002               	iorwf	(___fladd@b+1)^0,w,c
  2119  0077E0  1003               	iorwf	(___fladd@b+2)^0,w,c
  2120  0077E2  1004               	iorwf	(___fladd@b+3)^0,w,c
  2121  0077E4  A4D8               	btfss	status,2,c
  2122  0077E6  EFF7  F03B         	goto	u981
  2123  0077EA  EFFA  F03B         	goto	u980
  2124  0077EE                     u981:
  2125  0077EE  0E01               	movlw	1
  2126  0077F0  EFFB  F03B         	goto	u990
  2127  0077F4                     u980:
  2128  0077F4  0E00               	movlw	0
  2129  0077F6                     u990:
  2130  0077F6  6E10               	movwf	___fladd@grs^0,c
  2131  0077F8  0E00               	movlw	0
  2132  0077FA  6E01               	movwf	___fladd@b^0,c
  2133  0077FC  0E00               	movlw	0
  2134  0077FE  6E02               	movwf	(___fladd@b+1)^0,c
  2135  007800  0E00               	movlw	0
  2136  007802  6E03               	movwf	(___fladd@b+2)^0,c
  2137  007804  0E00               	movlw	0
  2138  007806  6E04               	movwf	(___fladd@b+3)^0,c
  2139  007808  C00E  F00F         	movff	___fladd@aexp,___fladd@bexp
  2140  00780C  EF2E  F03C         	goto	l627
  2141  007810                     l629:
  2142  007810  A010               	btfss	___fladd@grs^0,0,c
  2143  007812  EF0D  F03C         	goto	u1001
  2144  007816  EF0F  F03C         	goto	u1000
  2145  00781A                     u1001:
  2146  00781A  EF15  F03C         	goto	l1472
  2147  00781E                     u1000:
  2148  00781E  90D8               	bcf	status,0,c
  2149  007820  3010               	rrcf	___fladd@grs^0,w,c
  2150  007822  0901               	iorlw	1
  2151  007824  6E10               	movwf	___fladd@grs^0,c
  2152  007826  EF17  F03C         	goto	l1474
  2153  00782A                     l1472:
  2154  00782A  90D8               	bcf	status,0,c
  2155  00782C  3210               	rrcf	___fladd@grs^0,f,c
  2156  00782E                     l1474:
  2157  00782E  A001               	btfss	___fladd@b^0,0,c
  2158  007830  EF1C  F03C         	goto	u1011
  2159  007834  EF1E  F03C         	goto	u1010
  2160  007838                     u1011:
  2161  007838  EF1F  F03C         	goto	l1478
  2162  00783C                     u1010:
  2163  00783C  8E10               	bsf	___fladd@grs^0,7,c
  2164  00783E                     l1478:
  2165  00783E  3404               	rlcf	(___fladd@b+3)^0,w,c
  2166  007840  3204               	rrcf	(___fladd@b+3)^0,f,c
  2167  007842  3203               	rrcf	(___fladd@b+2)^0,f,c
  2168  007844  3202               	rrcf	(___fladd@b+1)^0,f,c
  2169  007846  3201               	rrcf	___fladd@b^0,f,c
  2170  007848  2A0F               	incf	___fladd@bexp^0,f,c
  2171  00784A                     l628:
  2172  00784A  500E               	movf	___fladd@aexp^0,w,c
  2173  00784C  5C0F               	subwf	___fladd@bexp^0,w,c
  2174  00784E  A0D8               	btfss	status,0,c
  2175  007850  EF2C  F03C         	goto	u1021
  2176  007854  EF2E  F03C         	goto	u1020
  2177  007858                     u1021:
  2178  007858  EF08  F03C         	goto	l629
  2179  00785C                     u1020:
  2180  00785C                     l627:
  2181  00785C  BC0D               	btfsc	___fladd@signs^0,6,c
  2182  00785E  EF33  F03C         	goto	u1031
  2183  007862  EF35  F03C         	goto	u1030
  2184  007866                     u1031:
  2185  007866  EF75  F03C         	goto	l1506
  2186  00786A                     u1030:
  2187  00786A  500F               	movf	___fladd@bexp^0,w,c
  2188  00786C  A4D8               	btfss	status,2,c
  2189  00786E  EF3B  F03C         	goto	u1041
  2190  007872  EF3D  F03C         	goto	u1040
  2191  007876                     u1041:
  2192  007876  EF47  F03C         	goto	l1488
  2193  00787A                     u1040:
  2194  00787A  0E00               	movlw	0
  2195  00787C  6E01               	movwf	?___fladd^0,c
  2196  00787E  0E00               	movlw	0
  2197  007880  6E02               	movwf	(?___fladd+1)^0,c
  2198  007882  0E00               	movlw	0
  2199  007884  6E03               	movwf	(?___fladd+2)^0,c
  2200  007886  0E00               	movlw	0
  2201  007888  6E04               	movwf	(?___fladd+3)^0,c
  2202  00788A  EF96  F03D         	goto	l636
  2203  00788E                     l1488:
  2204  00788E  5005               	movf	___fladd@a^0,w,c
  2205  007890  2601               	addwf	___fladd@b^0,f,c
  2206  007892  5006               	movf	(___fladd@a+1)^0,w,c
  2207  007894  2202               	addwfc	(___fladd@b+1)^0,f,c
  2208  007896  5007               	movf	(___fladd@a+2)^0,w,c
  2209  007898  2203               	addwfc	(___fladd@b+2)^0,f,c
  2210  00789A  5008               	movf	(___fladd@a+3)^0,w,c
  2211  00789C  2204               	addwfc	(___fladd@b+3)^0,f,c
  2212  00789E  A004               	btfss	(___fladd@b+3)^0,0,c
  2213  0078A0  EF54  F03C         	goto	u1051
  2214  0078A4  EF56  F03C         	goto	u1050
  2215  0078A8                     u1051:
  2216  0078A8  EF02  F03D         	goto	l1542
  2217  0078AC                     u1050:
  2218  0078AC  A010               	btfss	___fladd@grs^0,0,c
  2219  0078AE  EF5B  F03C         	goto	u1061
  2220  0078B2  EF5D  F03C         	goto	u1060
  2221  0078B6                     u1061:
  2222  0078B6  EF63  F03C         	goto	l1496
  2223  0078BA                     u1060:
  2224  0078BA  90D8               	bcf	status,0,c
  2225  0078BC  3010               	rrcf	___fladd@grs^0,w,c
  2226  0078BE  0901               	iorlw	1
  2227  0078C0  6E10               	movwf	___fladd@grs^0,c
  2228  0078C2  EF65  F03C         	goto	l1498
  2229  0078C6                     l1496:
  2230  0078C6  90D8               	bcf	status,0,c
  2231  0078C8  3210               	rrcf	___fladd@grs^0,f,c
  2232  0078CA                     l1498:
  2233  0078CA  A001               	btfss	___fladd@b^0,0,c
  2234  0078CC  EF6A  F03C         	goto	u1071
  2235  0078D0  EF6C  F03C         	goto	u1070
  2236  0078D4                     u1071:
  2237  0078D4  EF6D  F03C         	goto	l1502
  2238  0078D8                     u1070:
  2239  0078D8  8E10               	bsf	___fladd@grs^0,7,c
  2240  0078DA                     l1502:
  2241  0078DA  3404               	rlcf	(___fladd@b+3)^0,w,c
  2242  0078DC  3204               	rrcf	(___fladd@b+3)^0,f,c
  2243  0078DE  3203               	rrcf	(___fladd@b+2)^0,f,c
  2244  0078E0  3202               	rrcf	(___fladd@b+1)^0,f,c
  2245  0078E2  3201               	rrcf	___fladd@b^0,f,c
  2246  0078E4  2A0F               	incf	___fladd@bexp^0,f,c
  2247  0078E6  EF02  F03D         	goto	l1542
  2248  0078EA                     l1506:
  2249  0078EA  5005               	movf	___fladd@a^0,w,c
  2250  0078EC  5C01               	subwf	___fladd@b^0,w,c
  2251  0078EE  5006               	movf	(___fladd@a+1)^0,w,c
  2252  0078F0  5802               	subwfb	(___fladd@b+1)^0,w,c
  2253  0078F2  5007               	movf	(___fladd@a+2)^0,w,c
  2254  0078F4  5803               	subwfb	(___fladd@b+2)^0,w,c
  2255  0078F6  5004               	movf	(___fladd@b+3)^0,w,c
  2256  0078F8  0A80               	xorlw	128
  2257  0078FA  6E09               	movwf	??___fladd^0,c
  2258  0078FC  5008               	movf	(___fladd@a+3)^0,w,c
  2259  0078FE  0A80               	xorlw	128
  2260  007900  5809               	subwfb	??___fladd^0,w,c
  2261  007902  B0D8               	btfsc	status,0,c
  2262  007904  EF86  F03C         	goto	u1081
  2263  007908  EF88  F03C         	goto	u1080
  2264  00790C                     u1081:
  2265  00790C  EFB3  F03C         	goto	l1516
  2266  007910                     u1080:
  2267  007910  5001               	movf	___fladd@b^0,w,c
  2268  007912  5C05               	subwf	___fladd@a^0,w,c
  2269  007914  6E09               	movwf	??___fladd^0,c
  2270  007916  5002               	movf	(___fladd@b+1)^0,w,c
  2271  007918  5806               	subwfb	(___fladd@a+1)^0,w,c
  2272  00791A  6E0A               	movwf	(??___fladd+1)^0,c
  2273  00791C  5003               	movf	(___fladd@b+2)^0,w,c
  2274  00791E  5807               	subwfb	(___fladd@a+2)^0,w,c
  2275  007920  6E0B               	movwf	(??___fladd+2)^0,c
  2276  007922  5004               	movf	(___fladd@b+3)^0,w,c
  2277  007924  5808               	subwfb	(___fladd@a+3)^0,w,c
  2278  007926  6E0C               	movwf	(??___fladd+3)^0,c
  2279  007928  0EFF               	movlw	255
  2280  00792A  2409               	addwf	??___fladd^0,w,c
  2281  00792C  6E01               	movwf	___fladd@b^0,c
  2282  00792E  0EFF               	movlw	255
  2283  007930  200A               	addwfc	(??___fladd+1)^0,w,c
  2284  007932  6E02               	movwf	(___fladd@b+1)^0,c
  2285  007934  0EFF               	movlw	255
  2286  007936  200B               	addwfc	(??___fladd+2)^0,w,c
  2287  007938  6E03               	movwf	(___fladd@b+2)^0,c
  2288  00793A  0EFF               	movlw	255
  2289  00793C  200C               	addwfc	(??___fladd+3)^0,w,c
  2290  00793E  6E04               	movwf	(___fladd@b+3)^0,c
  2291  007940  0E80               	movlw	128
  2292  007942  1A0D               	xorwf	___fladd@signs^0,f,c
  2293  007944  6C10               	negf	___fladd@grs^0,c
  2294  007946  5010               	movf	___fladd@grs^0,w,c
  2295  007948  A4D8               	btfss	status,2,c
  2296  00794A  EFA9  F03C         	goto	u1091
  2297  00794E  EFAB  F03C         	goto	u1090
  2298  007952                     u1091:
  2299  007952  EFBB  F03C         	goto	l644
  2300  007956                     u1090:
  2301  007956  0E01               	movlw	1
  2302  007958  2601               	addwf	___fladd@b^0,f,c
  2303  00795A  0E00               	movlw	0
  2304  00795C  2202               	addwfc	(___fladd@b+1)^0,f,c
  2305  00795E  2203               	addwfc	(___fladd@b+2)^0,f,c
  2306  007960  2204               	addwfc	(___fladd@b+3)^0,f,c
  2307  007962  EFBB  F03C         	goto	l644
  2308  007966                     l1516:
  2309  007966  5005               	movf	___fladd@a^0,w,c
  2310  007968  5E01               	subwf	___fladd@b^0,f,c
  2311  00796A  5006               	movf	(___fladd@a+1)^0,w,c
  2312  00796C  5A02               	subwfb	(___fladd@b+1)^0,f,c
  2313  00796E  5007               	movf	(___fladd@a+2)^0,w,c
  2314  007970  5A03               	subwfb	(___fladd@b+2)^0,f,c
  2315  007972  5008               	movf	(___fladd@a+3)^0,w,c
  2316  007974  5A04               	subwfb	(___fladd@b+3)^0,f,c
  2317  007976                     l644:
  2318  007976  5001               	movf	___fladd@b^0,w,c
  2319  007978  1002               	iorwf	(___fladd@b+1)^0,w,c
  2320  00797A  1003               	iorwf	(___fladd@b+2)^0,w,c
  2321  00797C  1004               	iorwf	(___fladd@b+3)^0,w,c
  2322  00797E  A4D8               	btfss	status,2,c
  2323  007980  EFC4  F03C         	goto	u1101
  2324  007984  EFC6  F03C         	goto	u1100
  2325  007988                     u1101:
  2326  007988  EFFB  F03C         	goto	l1540
  2327  00798C                     u1100:
  2328  00798C  5010               	movf	___fladd@grs^0,w,c
  2329  00798E  A4D8               	btfss	status,2,c
  2330  007990  EFCC  F03C         	goto	u1111
  2331  007994  EFCE  F03C         	goto	u1110
  2332  007998                     u1111:
  2333  007998  EFFB  F03C         	goto	l1540
  2334  00799C                     u1110:
  2335  00799C  0E00               	movlw	0
  2336  00799E  6E01               	movwf	?___fladd^0,c
  2337  0079A0  0E00               	movlw	0
  2338  0079A2  6E02               	movwf	(?___fladd+1)^0,c
  2339  0079A4  0E00               	movlw	0
  2340  0079A6  6E03               	movwf	(?___fladd+2)^0,c
  2341  0079A8  0E00               	movlw	0
  2342  0079AA  6E04               	movwf	(?___fladd+3)^0,c
  2343  0079AC  EF96  F03D         	goto	l636
  2344  0079B0                     l1524:
  2345  0079B0  90D8               	bcf	status,0,c
  2346  0079B2  3601               	rlcf	___fladd@b^0,f,c
  2347  0079B4  3602               	rlcf	(___fladd@b+1)^0,f,c
  2348  0079B6  3603               	rlcf	(___fladd@b+2)^0,f,c
  2349  0079B8  3604               	rlcf	(___fladd@b+3)^0,f,c
  2350  0079BA  AE10               	btfss	___fladd@grs^0,7,c
  2351  0079BC  EFE2  F03C         	goto	u1121
  2352  0079C0  EFE4  F03C         	goto	u1120
  2353  0079C4                     u1121:
  2354  0079C4  EFE5  F03C         	goto	l1530
  2355  0079C8                     u1120:
  2356  0079C8  8001               	bsf	___fladd@b^0,0,c
  2357  0079CA                     l1530:
  2358  0079CA  A010               	btfss	___fladd@grs^0,0,c
  2359  0079CC  EFEA  F03C         	goto	u1131
  2360  0079D0  EFEC  F03C         	goto	u1130
  2361  0079D4                     u1131:
  2362  0079D4  EFF0  F03C         	goto	l1534
  2363  0079D8                     u1130:
  2364  0079D8  80D8               	bsf	status,0,c
  2365  0079DA  3610               	rlcf	___fladd@grs^0,f,c
  2366  0079DC  EFF2  F03C         	goto	l1536
  2367  0079E0                     l1534:
  2368  0079E0  90D8               	bcf	status,0,c
  2369  0079E2  3610               	rlcf	___fladd@grs^0,f,c
  2370  0079E4                     l1536:
  2371  0079E4  500F               	movf	___fladd@bexp^0,w,c
  2372  0079E6  B4D8               	btfsc	status,2,c
  2373  0079E8  EFF8  F03C         	goto	u1141
  2374  0079EC  EFFA  F03C         	goto	u1140
  2375  0079F0                     u1141:
  2376  0079F0  EFFB  F03C         	goto	l1540
  2377  0079F4                     u1140:
  2378  0079F4  060F               	decf	___fladd@bexp^0,f,c
  2379  0079F6                     l1540:
  2380  0079F6  AE03               	btfss	(___fladd@b+2)^0,7,c
  2381  0079F8  EF00  F03D         	goto	u1151
  2382  0079FC  EF02  F03D         	goto	u1150
  2383  007A00                     u1151:
  2384  007A00  EFD8  F03C         	goto	l1524
  2385  007A04                     u1150:
  2386  007A04                     l1542:
  2387  007A04  0E00               	movlw	0
  2388  007A06  6E0E               	movwf	___fladd@aexp^0,c
  2389  007A08  AE10               	btfss	___fladd@grs^0,7,c
  2390  007A0A  EF09  F03D         	goto	u1161
  2391  007A0E  EF0B  F03D         	goto	u1160
  2392  007A12                     u1161:
  2393  007A12  EF23  F03D         	goto	l653
  2394  007A16                     u1160:
  2395  007A16  C010  F009         	movff	___fladd@grs,??___fladd
  2396  007A1A  0E7F               	movlw	127
  2397  007A1C  1609               	andwf	??___fladd^0,f,c
  2398  007A1E  B4D8               	btfsc	status,2,c
  2399  007A20  EF14  F03D         	goto	u1171
  2400  007A24  EF16  F03D         	goto	u1170
  2401  007A28                     u1171:
  2402  007A28  EF1A  F03D         	goto	l654
  2403  007A2C                     u1170:
  2404  007A2C                     l1548:
  2405  007A2C  0E01               	movlw	1
  2406  007A2E  6E0E               	movwf	___fladd@aexp^0,c
  2407  007A30  EF23  F03D         	goto	l653
  2408  007A34                     l654:
  2409  007A34  A001               	btfss	___fladd@b^0,0,c
  2410  007A36  EF1F  F03D         	goto	u1181
  2411  007A3A  EF21  F03D         	goto	u1180
  2412  007A3E                     u1181:
  2413  007A3E  EF23  F03D         	goto	l653
  2414  007A42                     u1180:
  2415  007A42  EF16  F03D         	goto	l1548
  2416  007A46                     l653:
  2417  007A46  500E               	movf	___fladd@aexp^0,w,c
  2418  007A48  B4D8               	btfsc	status,2,c
  2419  007A4A  EF29  F03D         	goto	u1191
  2420  007A4E  EF2B  F03D         	goto	u1190
  2421  007A52                     u1191:
  2422  007A52  EF56  F03D         	goto	l1560
  2423  007A56                     u1190:
  2424  007A56  0E01               	movlw	1
  2425  007A58  2601               	addwf	___fladd@b^0,f,c
  2426  007A5A  0E00               	movlw	0
  2427  007A5C  2202               	addwfc	(___fladd@b+1)^0,f,c
  2428  007A5E  2203               	addwfc	(___fladd@b+2)^0,f,c
  2429  007A60  2204               	addwfc	(___fladd@b+3)^0,f,c
  2430  007A62  A004               	btfss	(___fladd@b+3)^0,0,c
  2431  007A64  EF36  F03D         	goto	u1201
  2432  007A68  EF38  F03D         	goto	u1200
  2433  007A6C                     u1201:
  2434  007A6C  EF56  F03D         	goto	l1560
  2435  007A70                     u1200:
  2436  007A70  C001  F009         	movff	___fladd@b,??___fladd
  2437  007A74  C002  F00A         	movff	___fladd@b+1,??___fladd+1
  2438  007A78  C003  F00B         	movff	___fladd@b+2,??___fladd+2
  2439  007A7C  C004  F00C         	movff	___fladd@b+3,??___fladd+3
  2440  007A80  340C               	rlcf	(??___fladd+3)^0,w,c
  2441  007A82  320C               	rrcf	(??___fladd+3)^0,f,c
  2442  007A84  320B               	rrcf	(??___fladd+2)^0,f,c
  2443  007A86  320A               	rrcf	(??___fladd+1)^0,f,c
  2444  007A88  3209               	rrcf	??___fladd^0,f,c
  2445  007A8A  C009  F001         	movff	??___fladd,___fladd@b
  2446  007A8E  C00A  F002         	movff	??___fladd+1,___fladd@b+1
  2447  007A92  C00B  F003         	movff	??___fladd+2,___fladd@b+2
  2448  007A96  C00C  F004         	movff	??___fladd+3,___fladd@b+3
  2449  007A9A  280F               	incf	___fladd@bexp^0,w,c
  2450  007A9C  B4D8               	btfsc	status,2,c
  2451  007A9E  EF53  F03D         	goto	u1211
  2452  007AA2  EF55  F03D         	goto	u1210
  2453  007AA6                     u1211:
  2454  007AA6  EF56  F03D         	goto	l1560
  2455  007AAA                     u1210:
  2456  007AAA  2A0F               	incf	___fladd@bexp^0,f,c
  2457  007AAC                     l1560:
  2458  007AAC  280F               	incf	___fladd@bexp^0,w,c
  2459  007AAE  B4D8               	btfsc	status,2,c
  2460  007AB0  EF5C  F03D         	goto	u1221
  2461  007AB4  EF5E  F03D         	goto	u1220
  2462  007AB8                     u1221:
  2463  007AB8  EF66  F03D         	goto	l1564
  2464  007ABC                     u1220:
  2465  007ABC  500F               	movf	___fladd@bexp^0,w,c
  2466  007ABE  A4D8               	btfss	status,2,c
  2467  007AC0  EF64  F03D         	goto	u1231
  2468  007AC4  EF66  F03D         	goto	u1230
  2469  007AC8                     u1231:
  2470  007AC8  EF78  F03D         	goto	l1568
  2471  007ACC                     u1230:
  2472  007ACC                     l1564:
  2473  007ACC  0E00               	movlw	0
  2474  007ACE  6E01               	movwf	___fladd@b^0,c
  2475  007AD0  0E00               	movlw	0
  2476  007AD2  6E02               	movwf	(___fladd@b+1)^0,c
  2477  007AD4  0E00               	movlw	0
  2478  007AD6  6E03               	movwf	(___fladd@b+2)^0,c
  2479  007AD8  0E00               	movlw	0
  2480  007ADA  6E04               	movwf	(___fladd@b+3)^0,c
  2481  007ADC  500F               	movf	___fladd@bexp^0,w,c
  2482  007ADE  A4D8               	btfss	status,2,c
  2483  007AE0  EF74  F03D         	goto	u1241
  2484  007AE4  EF76  F03D         	goto	u1240
  2485  007AE8                     u1241:
  2486  007AE8  EF78  F03D         	goto	l1568
  2487  007AEC                     u1240:
  2488  007AEC  0E00               	movlw	0
  2489  007AEE  6E0D               	movwf	___fladd@signs^0,c
  2490  007AF0                     l1568:
  2491  007AF0  A00F               	btfss	___fladd@bexp^0,0,c
  2492  007AF2  EF7D  F03D         	goto	u1251
  2493  007AF6  EF7F  F03D         	goto	u1250
  2494  007AFA                     u1251:
  2495  007AFA  EF82  F03D         	goto	l1572
  2496  007AFE                     u1250:
  2497  007AFE  8E03               	bsf	(___fladd@b+2)^0,7,c
  2498  007B00  EF83  F03D         	goto	l1574
  2499  007B04                     l1572:
  2500  007B04  9E03               	bcf	(___fladd@b+2)^0,7,c
  2501  007B06                     l1574:
  2502  007B06  90D8               	bcf	status,0,c
  2503  007B08  300F               	rrcf	___fladd@bexp^0,w,c
  2504  007B0A  6E04               	movwf	(___fladd@b+3)^0,c
  2505  007B0C  AE0D               	btfss	___fladd@signs^0,7,c
  2506  007B0E  EF8B  F03D         	goto	u1261
  2507  007B12  EF8D  F03D         	goto	u1260
  2508  007B16                     u1261:
  2509  007B16  EF8E  F03D         	goto	l1580
  2510  007B1A                     u1260:
  2511  007B1A  8E04               	bsf	(___fladd@b+3)^0,7,c
  2512  007B1C                     l1580:
  2513  007B1C  C001  F001         	movff	___fladd@b,?___fladd
  2514  007B20  C002  F002         	movff	___fladd@b+1,?___fladd+1
  2515  007B24  C003  F003         	movff	___fladd@b+2,?___fladd+2
  2516  007B28  C004  F004         	movff	___fladd@b+3,?___fladd+3
  2517  007B2C                     l636:
  2518  007B2C  0012               	return		;funcret
  2519  007B2E                     __end_of___fladd:
  2520                           	callstack 0
  2521                           
  2522 ;; *************** function ___fldiv *****************
  2523 ;; Defined at:
  2524 ;;		line 11 in file "C:\Program Files\Microchip\xc8\v2.32\pic\sources\c99\common\sprcdiv.c"
  2525 ;; Parameters:    Size  Location     Type
  2526 ;;  b               4   14[COMRAM] unsigned char 
  2527 ;;  a               4   18[COMRAM] unsigned char 
  2528 ;; Auto vars:     Size  Location     Type
  2529 ;;  grs             4   33[COMRAM] unsigned long 
  2530 ;;  rem             4   26[COMRAM] unsigned long 
  2531 ;;  new_exp         2   31[COMRAM] short 
  2532 ;;  aexp            1   38[COMRAM] unsigned char 
  2533 ;;  bexp            1   37[COMRAM] unsigned char 
  2534 ;;  sign            1   30[COMRAM] unsigned char 
  2535 ;; Return value:  Size  Location     Type
  2536 ;;                  4   14[COMRAM] unsigned char 
  2537 ;; Registers used:
  2538 ;;		wreg, status,2, status,0
  2539 ;; Tracked objects:
  2540 ;;		On entry : 0/0
  2541 ;;		On exit  : 0/0
  2542 ;;		Unchanged: 0/0
  2543 ;; Data sizes:     COMRAM   BANK0   BANK1   BANK2   BANK3   BANK4   BANK5   BANK6   BANK7
  2544 ;;      Params:         8       0       0       0       0       0       0       0       0
  2545 ;;      Locals:        13       0       0       0       0       0       0       0       0
  2546 ;;      Temps:          4       0       0       0       0       0       0       0       0
  2547 ;;      Totals:        25       0       0       0       0       0       0       0       0
  2548 ;;Total ram usage:       25 bytes
  2549 ;; Hardware stack levels used: 1
  2550 ;; This function calls:
  2551 ;;		Nothing
  2552 ;; This function is called by:
  2553 ;;		_tocar_nota
  2554 ;;		_silencio
  2555 ;; This function uses a non-reentrant model
  2556 ;;
  2557                           
  2558                           	psect	text8
  2559  0072D4                     __ptext8:
  2560                           	callstack 0
  2561  0072D4                     ___fldiv:
  2562                           	callstack 28
  2563  0072D4  5012               	movf	(___fldiv@b+3)^0,w,c
  2564  0072D6  0B80               	andlw	128
  2565  0072D8  6E1F               	movwf	___fldiv@sign^0,c
  2566  0072DA  5012               	movf	(___fldiv@b+3)^0,w,c
  2567  0072DC  2412               	addwf	(___fldiv@b+3)^0,w,c
  2568  0072DE  6E26               	movwf	___fldiv@bexp^0,c
  2569  0072E0  AE11               	btfss	(___fldiv@b+2)^0,7,c
  2570  0072E2  EF75  F039         	goto	u1271
  2571  0072E6  EF77  F039         	goto	u1270
  2572  0072EA                     u1271:
  2573  0072EA  EF78  F039         	goto	l1590
  2574  0072EE                     u1270:
  2575  0072EE  8026               	bsf	___fldiv@bexp^0,0,c
  2576  0072F0                     l1590:
  2577  0072F0  5026               	movf	___fldiv@bexp^0,w,c
  2578  0072F2  B4D8               	btfsc	status,2,c
  2579  0072F4  EF7E  F039         	goto	u1281
  2580  0072F8  EF80  F039         	goto	u1280
  2581  0072FC                     u1281:
  2582  0072FC  EF95  F039         	goto	l1600
  2583  007300                     u1280:
  2584  007300  2826               	incf	___fldiv@bexp^0,w,c
  2585  007302  A4D8               	btfss	status,2,c
  2586  007304  EF86  F039         	goto	u1291
  2587  007308  EF88  F039         	goto	u1290
  2588  00730C                     u1291:
  2589  00730C  EF90  F039         	goto	l1596
  2590  007310                     u1290:
  2591  007310  0E00               	movlw	0
  2592  007312  6E0F               	movwf	___fldiv@b^0,c
  2593  007314  0E00               	movlw	0
  2594  007316  6E10               	movwf	(___fldiv@b+1)^0,c
  2595  007318  0E00               	movlw	0
  2596  00731A  6E11               	movwf	(___fldiv@b+2)^0,c
  2597  00731C  0E00               	movlw	0
  2598  00731E  6E12               	movwf	(___fldiv@b+3)^0,c
  2599  007320                     l1596:
  2600  007320  8E11               	bsf	(___fldiv@b+2)^0,7,c
  2601  007322  0E00               	movlw	0
  2602  007324  6E12               	movwf	(___fldiv@b+3)^0,c
  2603  007326  EF9D  F039         	goto	l1602
  2604  00732A                     l1600:
  2605  00732A  0E00               	movlw	0
  2606  00732C  6E0F               	movwf	___fldiv@b^0,c
  2607  00732E  0E00               	movlw	0
  2608  007330  6E10               	movwf	(___fldiv@b+1)^0,c
  2609  007332  0E00               	movlw	0
  2610  007334  6E11               	movwf	(___fldiv@b+2)^0,c
  2611  007336  0E00               	movlw	0
  2612  007338  6E12               	movwf	(___fldiv@b+3)^0,c
  2613  00733A                     l1602:
  2614  00733A  5016               	movf	(___fldiv@a+3)^0,w,c
  2615  00733C  0B80               	andlw	128
  2616  00733E  1A1F               	xorwf	___fldiv@sign^0,f,c
  2617  007340  5016               	movf	(___fldiv@a+3)^0,w,c
  2618  007342  2416               	addwf	(___fldiv@a+3)^0,w,c
  2619  007344  6E27               	movwf	___fldiv@aexp^0,c
  2620  007346  AE15               	btfss	(___fldiv@a+2)^0,7,c
  2621  007348  EFA8  F039         	goto	u1301
  2622  00734C  EFAA  F039         	goto	u1300
  2623  007350                     u1301:
  2624  007350  EFAB  F039         	goto	l1610
  2625  007354                     u1300:
  2626  007354  8027               	bsf	___fldiv@aexp^0,0,c
  2627  007356                     l1610:
  2628  007356  5027               	movf	___fldiv@aexp^0,w,c
  2629  007358  B4D8               	btfsc	status,2,c
  2630  00735A  EFB1  F039         	goto	u1311
  2631  00735E  EFB3  F039         	goto	u1310
  2632  007362                     u1311:
  2633  007362  EFC8  F039         	goto	l1620
  2634  007366                     u1310:
  2635  007366  2827               	incf	___fldiv@aexp^0,w,c
  2636  007368  A4D8               	btfss	status,2,c
  2637  00736A  EFB9  F039         	goto	u1321
  2638  00736E  EFBB  F039         	goto	u1320
  2639  007372                     u1321:
  2640  007372  EFC3  F039         	goto	l1616
  2641  007376                     u1320:
  2642  007376  0E00               	movlw	0
  2643  007378  6E13               	movwf	___fldiv@a^0,c
  2644  00737A  0E00               	movlw	0
  2645  00737C  6E14               	movwf	(___fldiv@a+1)^0,c
  2646  00737E  0E00               	movlw	0
  2647  007380  6E15               	movwf	(___fldiv@a+2)^0,c
  2648  007382  0E00               	movlw	0
  2649  007384  6E16               	movwf	(___fldiv@a+3)^0,c
  2650  007386                     l1616:
  2651  007386  8E15               	bsf	(___fldiv@a+2)^0,7,c
  2652  007388  0E00               	movlw	0
  2653  00738A  6E16               	movwf	(___fldiv@a+3)^0,c
  2654  00738C  EFD0  F039         	goto	l1622
  2655  007390                     l1620:
  2656  007390  0E00               	movlw	0
  2657  007392  6E13               	movwf	___fldiv@a^0,c
  2658  007394  0E00               	movlw	0
  2659  007396  6E14               	movwf	(___fldiv@a+1)^0,c
  2660  007398  0E00               	movlw	0
  2661  00739A  6E15               	movwf	(___fldiv@a+2)^0,c
  2662  00739C  0E00               	movlw	0
  2663  00739E  6E16               	movwf	(___fldiv@a+3)^0,c
  2664  0073A0                     l1622:
  2665  0073A0  5013               	movf	___fldiv@a^0,w,c
  2666  0073A2  1014               	iorwf	(___fldiv@a+1)^0,w,c
  2667  0073A4  1015               	iorwf	(___fldiv@a+2)^0,w,c
  2668  0073A6  1016               	iorwf	(___fldiv@a+3)^0,w,c
  2669  0073A8  A4D8               	btfss	status,2,c
  2670  0073AA  EFD9  F039         	goto	u1331
  2671  0073AE  EFDB  F039         	goto	u1330
  2672  0073B2                     u1331:
  2673  0073B2  EFF3  F039         	goto	l1634
  2674  0073B6                     u1330:
  2675  0073B6  0E00               	movlw	0
  2676  0073B8  6E0F               	movwf	___fldiv@b^0,c
  2677  0073BA  0E00               	movlw	0
  2678  0073BC  6E10               	movwf	(___fldiv@b+1)^0,c
  2679  0073BE  0E00               	movlw	0
  2680  0073C0  6E11               	movwf	(___fldiv@b+2)^0,c
  2681  0073C2  0E00               	movlw	0
  2682  0073C4  6E12               	movwf	(___fldiv@b+3)^0,c
  2683  0073C6  0E80               	movlw	128
  2684  0073C8  1211               	iorwf	(___fldiv@b+2)^0,f,c
  2685  0073CA  0E7F               	movlw	127
  2686  0073CC  1212               	iorwf	(___fldiv@b+3)^0,f,c
  2687  0073CE                     l1628:
  2688  0073CE  501F               	movf	___fldiv@sign^0,w,c
  2689  0073D0  1212               	iorwf	(___fldiv@b+3)^0,f,c
  2690  0073D2  C00F  F00F         	movff	___fldiv@b,?___fldiv
  2691  0073D6  C010  F010         	movff	___fldiv@b+1,?___fldiv+1
  2692  0073DA  C011  F011         	movff	___fldiv@b+2,?___fldiv+2
  2693  0073DE  C012  F012         	movff	___fldiv@b+3,?___fldiv+3
  2694  0073E2  EF36  F03B         	goto	l681
  2695  0073E6                     l1634:
  2696  0073E6  5026               	movf	___fldiv@bexp^0,w,c
  2697  0073E8  A4D8               	btfss	status,2,c
  2698  0073EA  EFF9  F039         	goto	u1341
  2699  0073EE  EFFB  F039         	goto	u1340
  2700  0073F2                     u1341:
  2701  0073F2  EF05  F03A         	goto	l1642
  2702  0073F6                     u1340:
  2703  0073F6  0E00               	movlw	0
  2704  0073F8  6E0F               	movwf	?___fldiv^0,c
  2705  0073FA  0E00               	movlw	0
  2706  0073FC  6E10               	movwf	(?___fldiv+1)^0,c
  2707  0073FE  0E00               	movlw	0
  2708  007400  6E11               	movwf	(?___fldiv+2)^0,c
  2709  007402  0E00               	movlw	0
  2710  007404  6E12               	movwf	(?___fldiv+3)^0,c
  2711  007406  EF36  F03B         	goto	l681
  2712  00740A                     l1642:
  2713  00740A  5027               	movf	___fldiv@aexp^0,w,c
  2714  00740C  C026  F017         	movff	___fldiv@bexp,??___fldiv
  2715  007410  6A18               	clrf	(??___fldiv+1)^0,c
  2716  007412  5E17               	subwf	??___fldiv^0,f,c
  2717  007414  0E00               	movlw	0
  2718  007416  5A18               	subwfb	(??___fldiv+1)^0,f,c
  2719  007418  0E7F               	movlw	127
  2720  00741A  2417               	addwf	??___fldiv^0,w,c
  2721  00741C  6E20               	movwf	___fldiv@new_exp^0,c
  2722  00741E  0E00               	movlw	0
  2723  007420  2018               	addwfc	(??___fldiv+1)^0,w,c
  2724  007422  6E21               	movwf	(___fldiv@new_exp+1)^0,c
  2725  007424  C00F  F01B         	movff	___fldiv@b,___fldiv@rem
  2726  007428  C010  F01C         	movff	___fldiv@b+1,___fldiv@rem+1
  2727  00742C  C011  F01D         	movff	___fldiv@b+2,___fldiv@rem+2
  2728  007430  C012  F01E         	movff	___fldiv@b+3,___fldiv@rem+3
  2729  007434  0E00               	movlw	0
  2730  007436  6E0F               	movwf	___fldiv@b^0,c
  2731  007438  0E00               	movlw	0
  2732  00743A  6E10               	movwf	(___fldiv@b+1)^0,c
  2733  00743C  0E00               	movlw	0
  2734  00743E  6E11               	movwf	(___fldiv@b+2)^0,c
  2735  007440  0E00               	movlw	0
  2736  007442  6E12               	movwf	(___fldiv@b+3)^0,c
  2737  007444  0E00               	movlw	0
  2738  007446  6E22               	movwf	___fldiv@grs^0,c
  2739  007448  0E00               	movlw	0
  2740  00744A  6E23               	movwf	(___fldiv@grs+1)^0,c
  2741  00744C  0E00               	movlw	0
  2742  00744E  6E24               	movwf	(___fldiv@grs+2)^0,c
  2743  007450  0E00               	movlw	0
  2744  007452  6E25               	movwf	(___fldiv@grs+3)^0,c
  2745  007454  0E00               	movlw	0
  2746  007456  6E27               	movwf	___fldiv@aexp^0,c
  2747  007458  EF66  F03A         	goto	l683
  2748  00745C                     l1652:
  2749  00745C  5027               	movf	___fldiv@aexp^0,w,c
  2750  00745E  B4D8               	btfsc	status,2,c
  2751  007460  EF34  F03A         	goto	u1351
  2752  007464  EF36  F03A         	goto	u1350
  2753  007468                     u1351:
  2754  007468  EF4D  F03A         	goto	l1660
  2755  00746C                     u1350:
  2756  00746C  90D8               	bcf	status,0,c
  2757  00746E  361B               	rlcf	___fldiv@rem^0,f,c
  2758  007470  361C               	rlcf	(___fldiv@rem+1)^0,f,c
  2759  007472  361D               	rlcf	(___fldiv@rem+2)^0,f,c
  2760  007474  361E               	rlcf	(___fldiv@rem+3)^0,f,c
  2761  007476  90D8               	bcf	status,0,c
  2762  007478  360F               	rlcf	___fldiv@b^0,f,c
  2763  00747A  3610               	rlcf	(___fldiv@b+1)^0,f,c
  2764  00747C  3611               	rlcf	(___fldiv@b+2)^0,f,c
  2765  00747E  3612               	rlcf	(___fldiv@b+3)^0,f,c
  2766  007480  AE25               	btfss	(___fldiv@grs+3)^0,7,c
  2767  007482  EF45  F03A         	goto	u1361
  2768  007486  EF47  F03A         	goto	u1360
  2769  00748A                     u1361:
  2770  00748A  EF48  F03A         	goto	l686
  2771  00748E                     u1360:
  2772  00748E  800F               	bsf	___fldiv@b^0,0,c
  2773  007490                     l686:
  2774  007490  90D8               	bcf	status,0,c
  2775  007492  3622               	rlcf	___fldiv@grs^0,f,c
  2776  007494  3623               	rlcf	(___fldiv@grs+1)^0,f,c
  2777  007496  3624               	rlcf	(___fldiv@grs+2)^0,f,c
  2778  007498  3625               	rlcf	(___fldiv@grs+3)^0,f,c
  2779  00749A                     l1660:
  2780  00749A  5013               	movf	___fldiv@a^0,w,c
  2781  00749C  5C1B               	subwf	___fldiv@rem^0,w,c
  2782  00749E  5014               	movf	(___fldiv@a+1)^0,w,c
  2783  0074A0  581C               	subwfb	(___fldiv@rem+1)^0,w,c
  2784  0074A2  5015               	movf	(___fldiv@a+2)^0,w,c
  2785  0074A4  581D               	subwfb	(___fldiv@rem+2)^0,w,c
  2786  0074A6  5016               	movf	(___fldiv@a+3)^0,w,c
  2787  0074A8  581E               	subwfb	(___fldiv@rem+3)^0,w,c
  2788  0074AA  A0D8               	btfss	status,0,c
  2789  0074AC  EF5A  F03A         	goto	u1371
  2790  0074B0  EF5C  F03A         	goto	u1370
  2791  0074B4                     u1371:
  2792  0074B4  EF65  F03A         	goto	l1666
  2793  0074B8                     u1370:
  2794  0074B8  8C25               	bsf	(___fldiv@grs+3)^0,6,c
  2795  0074BA  5013               	movf	___fldiv@a^0,w,c
  2796  0074BC  5E1B               	subwf	___fldiv@rem^0,f,c
  2797  0074BE  5014               	movf	(___fldiv@a+1)^0,w,c
  2798  0074C0  5A1C               	subwfb	(___fldiv@rem+1)^0,f,c
  2799  0074C2  5015               	movf	(___fldiv@a+2)^0,w,c
  2800  0074C4  5A1D               	subwfb	(___fldiv@rem+2)^0,f,c
  2801  0074C6  5016               	movf	(___fldiv@a+3)^0,w,c
  2802  0074C8  5A1E               	subwfb	(___fldiv@rem+3)^0,f,c
  2803  0074CA                     l1666:
  2804  0074CA  2A27               	incf	___fldiv@aexp^0,f,c
  2805  0074CC                     l683:
  2806  0074CC  0E19               	movlw	25
  2807  0074CE  6427               	cpfsgt	___fldiv@aexp^0,c
  2808  0074D0  EF6C  F03A         	goto	u1381
  2809  0074D4  EF6E  F03A         	goto	u1380
  2810  0074D8                     u1381:
  2811  0074D8  EF2E  F03A         	goto	l1652
  2812  0074DC                     u1380:
  2813  0074DC  501B               	movf	___fldiv@rem^0,w,c
  2814  0074DE  101C               	iorwf	(___fldiv@rem+1)^0,w,c
  2815  0074E0  101D               	iorwf	(___fldiv@rem+2)^0,w,c
  2816  0074E2  101E               	iorwf	(___fldiv@rem+3)^0,w,c
  2817  0074E4  B4D8               	btfsc	status,2,c
  2818  0074E6  EF77  F03A         	goto	u1391
  2819  0074EA  EF79  F03A         	goto	u1390
  2820  0074EE                     u1391:
  2821  0074EE  EF91  F03A         	goto	l1678
  2822  0074F2                     u1390:
  2823  0074F2  8022               	bsf	___fldiv@grs^0,0,c
  2824  0074F4  EF91  F03A         	goto	l1678
  2825  0074F8                     l1672:
  2826  0074F8  90D8               	bcf	status,0,c
  2827  0074FA  360F               	rlcf	___fldiv@b^0,f,c
  2828  0074FC  3610               	rlcf	(___fldiv@b+1)^0,f,c
  2829  0074FE  3611               	rlcf	(___fldiv@b+2)^0,f,c
  2830  007500  3612               	rlcf	(___fldiv@b+3)^0,f,c
  2831  007502  AE25               	btfss	(___fldiv@grs+3)^0,7,c
  2832  007504  EF86  F03A         	goto	u1401
  2833  007508  EF88  F03A         	goto	u1400
  2834  00750C                     u1401:
  2835  00750C  EF89  F03A         	goto	l692
  2836  007510                     u1400:
  2837  007510  800F               	bsf	___fldiv@b^0,0,c
  2838  007512                     l692:
  2839  007512  90D8               	bcf	status,0,c
  2840  007514  3622               	rlcf	___fldiv@grs^0,f,c
  2841  007516  3623               	rlcf	(___fldiv@grs+1)^0,f,c
  2842  007518  3624               	rlcf	(___fldiv@grs+2)^0,f,c
  2843  00751A  3625               	rlcf	(___fldiv@grs+3)^0,f,c
  2844  00751C  0620               	decf	___fldiv@new_exp^0,f,c
  2845  00751E  A0D8               	btfss	status,0,c
  2846  007520  0621               	decf	(___fldiv@new_exp+1)^0,f,c
  2847  007522                     l1678:
  2848  007522  AE11               	btfss	(___fldiv@b+2)^0,7,c
  2849  007524  EF96  F03A         	goto	u1411
  2850  007528  EF98  F03A         	goto	u1410
  2851  00752C                     u1411:
  2852  00752C  EF7C  F03A         	goto	l1672
  2853  007530                     u1410:
  2854  007530  0E00               	movlw	0
  2855  007532  6E27               	movwf	___fldiv@aexp^0,c
  2856  007534  AE25               	btfss	(___fldiv@grs+3)^0,7,c
  2857  007536  EF9F  F03A         	goto	u1421
  2858  00753A  EFA1  F03A         	goto	u1420
  2859  00753E                     u1421:
  2860  00753E  EFC5  F03A         	goto	l694
  2861  007542                     u1420:
  2862  007542  0EFF               	movlw	255
  2863  007544  1422               	andwf	___fldiv@grs^0,w,c
  2864  007546  6E17               	movwf	??___fldiv^0,c
  2865  007548  0EFF               	movlw	255
  2866  00754A  1423               	andwf	(___fldiv@grs+1)^0,w,c
  2867  00754C  6E18               	movwf	(??___fldiv+1)^0,c
  2868  00754E  0EFF               	movlw	255
  2869  007550  1424               	andwf	(___fldiv@grs+2)^0,w,c
  2870  007552  6E19               	movwf	(??___fldiv+2)^0,c
  2871  007554  0E7F               	movlw	127
  2872  007556  1425               	andwf	(___fldiv@grs+3)^0,w,c
  2873  007558  6E1A               	movwf	(??___fldiv+3)^0,c
  2874  00755A  5017               	movf	??___fldiv^0,w,c
  2875  00755C  1018               	iorwf	(??___fldiv+1)^0,w,c
  2876  00755E  1019               	iorwf	(??___fldiv+2)^0,w,c
  2877  007560  101A               	iorwf	(??___fldiv+3)^0,w,c
  2878  007562  B4D8               	btfsc	status,2,c
  2879  007564  EFB6  F03A         	goto	u1431
  2880  007568  EFB8  F03A         	goto	u1430
  2881  00756C                     u1431:
  2882  00756C  EFBC  F03A         	goto	l695
  2883  007570                     u1430:
  2884  007570                     l1686:
  2885  007570  0E01               	movlw	1
  2886  007572  6E27               	movwf	___fldiv@aexp^0,c
  2887  007574  EFC5  F03A         	goto	l694
  2888  007578                     l695:
  2889  007578  A00F               	btfss	___fldiv@b^0,0,c
  2890  00757A  EFC1  F03A         	goto	u1441
  2891  00757E  EFC3  F03A         	goto	u1440
  2892  007582                     u1441:
  2893  007582  EFC5  F03A         	goto	l694
  2894  007586                     u1440:
  2895  007586  EFB8  F03A         	goto	l1686
  2896  00758A                     l694:
  2897  00758A  5027               	movf	___fldiv@aexp^0,w,c
  2898  00758C  B4D8               	btfsc	status,2,c
  2899  00758E  EFCB  F03A         	goto	u1451
  2900  007592  EFCD  F03A         	goto	u1450
  2901  007596                     u1451:
  2902  007596  EFF1  F03A         	goto	l1698
  2903  00759A                     u1450:
  2904  00759A  0E01               	movlw	1
  2905  00759C  260F               	addwf	___fldiv@b^0,f,c
  2906  00759E  0E00               	movlw	0
  2907  0075A0  2210               	addwfc	(___fldiv@b+1)^0,f,c
  2908  0075A2  2211               	addwfc	(___fldiv@b+2)^0,f,c
  2909  0075A4  2212               	addwfc	(___fldiv@b+3)^0,f,c
  2910  0075A6  A012               	btfss	(___fldiv@b+3)^0,0,c
  2911  0075A8  EFD8  F03A         	goto	u1461
  2912  0075AC  EFDA  F03A         	goto	u1460
  2913  0075B0                     u1461:
  2914  0075B0  EFF1  F03A         	goto	l1698
  2915  0075B4                     u1460:
  2916  0075B4  C00F  F017         	movff	___fldiv@b,??___fldiv
  2917  0075B8  C010  F018         	movff	___fldiv@b+1,??___fldiv+1
  2918  0075BC  C011  F019         	movff	___fldiv@b+2,??___fldiv+2
  2919  0075C0  C012  F01A         	movff	___fldiv@b+3,??___fldiv+3
  2920  0075C4  341A               	rlcf	(??___fldiv+3)^0,w,c
  2921  0075C6  321A               	rrcf	(??___fldiv+3)^0,f,c
  2922  0075C8  3219               	rrcf	(??___fldiv+2)^0,f,c
  2923  0075CA  3218               	rrcf	(??___fldiv+1)^0,f,c
  2924  0075CC  3217               	rrcf	??___fldiv^0,f,c
  2925  0075CE  C017  F00F         	movff	??___fldiv,___fldiv@b
  2926  0075D2  C018  F010         	movff	??___fldiv+1,___fldiv@b+1
  2927  0075D6  C019  F011         	movff	??___fldiv+2,___fldiv@b+2
  2928  0075DA  C01A  F012         	movff	??___fldiv+3,___fldiv@b+3
  2929  0075DE  4A20               	infsnz	___fldiv@new_exp^0,f,c
  2930  0075E0  2A21               	incf	(___fldiv@new_exp+1)^0,f,c
  2931  0075E2                     l1698:
  2932  0075E2  BE21               	btfsc	(___fldiv@new_exp+1)^0,7,c
  2933  0075E4  EFFC  F03A         	goto	u1471
  2934  0075E8  5021               	movf	(___fldiv@new_exp+1)^0,w,c
  2935  0075EA  E108               	bnz	u1470
  2936  0075EC  2820               	incf	___fldiv@new_exp^0,w,c
  2937  0075EE  A0D8               	btfss	status,0,c
  2938  0075F0  EFFC  F03A         	goto	u1471
  2939  0075F4  EFFE  F03A         	goto	u1470
  2940  0075F8                     u1471:
  2941  0075F8  EF09  F03B         	goto	l1702
  2942  0075FC                     u1470:
  2943  0075FC  0E00               	movlw	0
  2944  0075FE  6E21               	movwf	(___fldiv@new_exp+1)^0,c
  2945  007600  6820               	setf	___fldiv@new_exp^0,c
  2946  007602  0E00               	movlw	0
  2947  007604  6E0F               	movwf	___fldiv@b^0,c
  2948  007606  0E00               	movlw	0
  2949  007608  6E10               	movwf	(___fldiv@b+1)^0,c
  2950  00760A  0E00               	movlw	0
  2951  00760C  6E11               	movwf	(___fldiv@b+2)^0,c
  2952  00760E  0E00               	movlw	0
  2953  007610  6E12               	movwf	(___fldiv@b+3)^0,c
  2954  007612                     l1702:
  2955  007612  BE21               	btfsc	(___fldiv@new_exp+1)^0,7,c
  2956  007614  EF16  F03B         	goto	u1480
  2957  007618  5021               	movf	(___fldiv@new_exp+1)^0,w,c
  2958  00761A  E106               	bnz	u1481
  2959  00761C  0420               	decf	___fldiv@new_exp^0,w,c
  2960  00761E  B0D8               	btfsc	status,0,c
  2961  007620  EF14  F03B         	goto	u1481
  2962  007624  EF16  F03B         	goto	u1480
  2963  007628                     u1481:
  2964  007628  EF24  F03B         	goto	l1706
  2965  00762C                     u1480:
  2966  00762C  0E00               	movlw	0
  2967  00762E  6E21               	movwf	(___fldiv@new_exp+1)^0,c
  2968  007630  0E00               	movlw	0
  2969  007632  6E20               	movwf	___fldiv@new_exp^0,c
  2970  007634  0E00               	movlw	0
  2971  007636  6E0F               	movwf	___fldiv@b^0,c
  2972  007638  0E00               	movlw	0
  2973  00763A  6E10               	movwf	(___fldiv@b+1)^0,c
  2974  00763C  0E00               	movlw	0
  2975  00763E  6E11               	movwf	(___fldiv@b+2)^0,c
  2976  007640  0E00               	movlw	0
  2977  007642  6E12               	movwf	(___fldiv@b+3)^0,c
  2978  007644  0E00               	movlw	0
  2979  007646  6E1F               	movwf	___fldiv@sign^0,c
  2980  007648                     l1706:
  2981  007648  C020  F026         	movff	___fldiv@new_exp,___fldiv@bexp
  2982  00764C  A026               	btfss	___fldiv@bexp^0,0,c
  2983  00764E  EF2B  F03B         	goto	u1491
  2984  007652  EF2D  F03B         	goto	u1490
  2985  007656                     u1491:
  2986  007656  EF30  F03B         	goto	l1712
  2987  00765A                     u1490:
  2988  00765A  8E11               	bsf	(___fldiv@b+2)^0,7,c
  2989  00765C  EF31  F03B         	goto	l1714
  2990  007660                     l1712:
  2991  007660  9E11               	bcf	(___fldiv@b+2)^0,7,c
  2992  007662                     l1714:
  2993  007662  90D8               	bcf	status,0,c
  2994  007664  3026               	rrcf	___fldiv@bexp^0,w,c
  2995  007666  6E12               	movwf	(___fldiv@b+3)^0,c
  2996  007668  EFE7  F039         	goto	l1628
  2997  00766C                     l681:
  2998  00766C  0012               	return		;funcret
  2999  00766E                     __end_of___fldiv:
  3000                           	callstack 0
  3001                           
  3002 ;; *************** function _confT0 *****************
  3003 ;; Defined at:
  3004 ;;		line 57 in file "main.c"
  3005 ;; Parameters:    Size  Location     Type
  3006 ;;		None
  3007 ;; Auto vars:     Size  Location     Type
  3008 ;;		None
  3009 ;; Return value:  Size  Location     Type
  3010 ;;                  1    wreg      void 
  3011 ;; Registers used:
  3012 ;;		wreg, status,2
  3013 ;; Tracked objects:
  3014 ;;		On entry : 0/0
  3015 ;;		On exit  : 0/0
  3016 ;;		Unchanged: 0/0
  3017 ;; Data sizes:     COMRAM   BANK0   BANK1   BANK2   BANK3   BANK4   BANK5   BANK6   BANK7
  3018 ;;      Params:         0       0       0       0       0       0       0       0       0
  3019 ;;      Locals:         0       0       0       0       0       0       0       0       0
  3020 ;;      Temps:          0       0       0       0       0       0       0       0       0
  3021 ;;      Totals:         0       0       0       0       0       0       0       0       0
  3022 ;;Total ram usage:        0 bytes
  3023 ;; Hardware stack levels used: 1
  3024 ;; This function calls:
  3025 ;;		Nothing
  3026 ;; This function is called by:
  3027 ;;		_main
  3028 ;; This function uses a non-reentrant model
  3029 ;;
  3030                           
  3031                           	psect	text9
  3032  006B86                     __ptext9:
  3033                           	callstack 0
  3034  006B86                     _confT0:
  3035                           	callstack 30
  3036  006B86                     
  3037                           ;main.c: 59:     T0CONbits.TMR0ON = 1;
  3038  006B86  8ED5               	bsf	213,7,c	;volatile
  3039                           
  3040                           ;main.c: 60:       T0CONbits.T08BIT = 1;
  3041  006B88  8CD5               	bsf	213,6,c	;volatile
  3042                           
  3043                           ;main.c: 61:       T0CONbits.T0CS = 0;
  3044  006B8A  9AD5               	bcf	213,5,c	;volatile
  3045                           
  3046                           ;main.c: 62:       T0CONbits.T0SE = 0;
  3047  006B8C  98D5               	bcf	213,4,c	;volatile
  3048                           
  3049                           ;main.c: 63:       T0CONbits.PSA = 0;
  3050  006B8E  96D5               	bcf	213,3,c	;volatile
  3051  006B90                     
  3052                           ;main.c: 64:       T0CONbits.T0PS = 0b110;
  3053  006B90  50D5               	movf	213,w,c	;volatile
  3054  006B92  0BF8               	andlw	-8
  3055  006B94  0906               	iorlw	6
  3056  006B96  6ED5               	movwf	213,c	;volatile
  3057  006B98                     
  3058                           ;main.c: 66:       INTCONbits.TMR0IE = 1;
  3059  006B98  8AF2               	bsf	242,5,c	;volatile
  3060  006B9A  0012               	return		;funcret
  3061  006B9C                     __end_of_confT0:
  3062                           	callstack 0
  3063                           
  3064 ;; *************** function _LCD_Init *****************
  3065 ;; Defined at:
  3066 ;;		line 5 in file "LCD_lib.c"
  3067 ;; Parameters:    Size  Location     Type
  3068 ;;		None
  3069 ;; Auto vars:     Size  Location     Type
  3070 ;;		None
  3071 ;; Return value:  Size  Location     Type
  3072 ;;                  1    wreg      void 
  3073 ;; Registers used:
  3074 ;;		wreg, status,2, status,0, cstack
  3075 ;; Tracked objects:
  3076 ;;		On entry : 0/0
  3077 ;;		On exit  : 0/0
  3078 ;;		Unchanged: 0/0
  3079 ;; Data sizes:     COMRAM   BANK0   BANK1   BANK2   BANK3   BANK4   BANK5   BANK6   BANK7
  3080 ;;      Params:         0       0       0       0       0       0       0       0       0
  3081 ;;      Locals:         0       0       0       0       0       0       0       0       0
  3082 ;;      Temps:          1       0       0       0       0       0       0       0       0
  3083 ;;      Totals:         1       0       0       0       0       0       0       0       0
  3084 ;;Total ram usage:        1 bytes
  3085 ;; Hardware stack levels used: 1
  3086 ;; Hardware stack levels required when called: 1
  3087 ;; This function calls:
  3088 ;;		_LCD_Comando
  3089 ;; This function is called by:
  3090 ;;		_main
  3091 ;; This function uses a non-reentrant model
  3092 ;;
  3093                           
  3094                           	psect	text10
  3095  006C80                     __ptext10:
  3096                           	callstack 0
  3097  006C80                     _LCD_Init:
  3098                           	callstack 29
  3099  006C80                     
  3100                           ;LCD_lib.c: 7:     PORTD = PORTD & 0xf0;
  3101  006C80  5083               	movf	131,w,c	;volatile
  3102  006C82  0BF0               	andlw	240
  3103  006C84  6E83               	movwf	131,c	;volatile
  3104                           
  3105                           ;LCD_lib.c: 12:     TRISD &= 0xf0;
  3106  006C86  0EF0               	movlw	240
  3107  006C88  1695               	andwf	149,f,c	;volatile
  3108  006C8A                     
  3109                           ;LCD_lib.c: 14:     TRISDbits.RD6 = 0;
  3110  006C8A  9C95               	bcf	149,6,c	;volatile
  3111  006C8C                     
  3112                           ;LCD_lib.c: 15:     TRISDbits.RD5 = 0;
  3113  006C8C  9A95               	bcf	149,5,c	;volatile
  3114  006C8E                     
  3115                           ;LCD_lib.c: 16:     TRISDbits.RD4 = 0;
  3116  006C8E  9895               	bcf	149,4,c	;volatile
  3117  006C90                     
  3118                           ;LCD_lib.c: 18:     LATDbits.LATD6 = 0;
  3119  006C90  9C8C               	bcf	140,6,c	;volatile
  3120  006C92                     
  3121                           ;LCD_lib.c: 19:     LATDbits.LATD5 = 0;
  3122  006C92  9A8C               	bcf	140,5,c	;volatile
  3123  006C94                     
  3124                           ;LCD_lib.c: 20:     LATDbits.LATD4 = 0;
  3125  006C94  988C               	bcf	140,4,c	;volatile
  3126  006C96                     
  3127                           ;LCD_lib.c: 22:     _delay((unsigned long)((15)*(20000000/4000.0)));
  3128  006C96  0E62               	movlw	98
  3129  006C98  6E02               	movwf	??_LCD_Init^0,c
  3130  006C9A  0E66               	movlw	102
  3131  006C9C                     u1737:
  3132  006C9C  2EE8               	decfsz	wreg,f,c
  3133  006C9E  D7FE               	bra	u1737
  3134  006CA0  2E02               	decfsz	??_LCD_Init^0,f,c
  3135  006CA2  D7FC               	bra	u1737
  3136  006CA4                     
  3137                           ;LCD_lib.c: 24:     LCD_Comando(0x30);
  3138  006CA4  0E30               	movlw	48
  3139  006CA6  EC18  F036         	call	_LCD_Comando
  3140  006CAA                     
  3141                           ;LCD_lib.c: 25:     _delay((unsigned long)((5)*(20000000/4000.0)));
  3142  006CAA  0E21               	movlw	33
  3143  006CAC  6E02               	movwf	??_LCD_Init^0,c
  3144  006CAE  0E76               	movlw	118
  3145  006CB0                     u1747:
  3146  006CB0  2EE8               	decfsz	wreg,f,c
  3147  006CB2  D7FE               	bra	u1747
  3148  006CB4  2E02               	decfsz	??_LCD_Init^0,f,c
  3149  006CB6  D7FC               	bra	u1747
  3150  006CB8  D000               	nop2	
  3151  006CBA                     
  3152                           ;LCD_lib.c: 26:     LCD_Comando(0x30);
  3153  006CBA  0E30               	movlw	48
  3154  006CBC  EC18  F036         	call	_LCD_Comando
  3155  006CC0                     
  3156                           ;LCD_lib.c: 27:     _delay((unsigned long)((100)*(20000000/4000000.0)));
  3157  006CC0  0EA6               	movlw	166
  3158  006CC2                     u1757:
  3159  006CC2  2EE8               	decfsz	wreg,f,c
  3160  006CC4  D7FE               	bra	u1757
  3161  006CC6  D000               	nop2	
  3162  006CC8                     
  3163                           ;LCD_lib.c: 28:     LCD_Comando(0x32);
  3164  006CC8  0E32               	movlw	50
  3165  006CCA  EC18  F036         	call	_LCD_Comando
  3166  006CCE                     
  3167                           ;LCD_lib.c: 29:     _delay((unsigned long)((100)*(20000000/4000000.0)));
  3168  006CCE  0EA6               	movlw	166
  3169  006CD0                     u1767:
  3170  006CD0  2EE8               	decfsz	wreg,f,c
  3171  006CD2  D7FE               	bra	u1767
  3172  006CD4  D000               	nop2	
  3173  006CD6                     
  3174                           ;LCD_lib.c: 32:     _delay((unsigned long)((100)*(20000000/4000000.0)));
  3175  006CD6  0EA6               	movlw	166
  3176  006CD8                     u1777:
  3177  006CD8  2EE8               	decfsz	wreg,f,c
  3178  006CDA  D7FE               	bra	u1777
  3179  006CDC  D000               	nop2	
  3180  006CDE                     
  3181                           ;LCD_lib.c: 33:     LCD_Comando(0x28);
  3182  006CDE  0E28               	movlw	40
  3183  006CE0  EC18  F036         	call	_LCD_Comando
  3184  006CE4                     
  3185                           ;LCD_lib.c: 34:     _delay((unsigned long)((100)*(20000000/4000000.0)));
  3186  006CE4  0EA6               	movlw	166
  3187  006CE6                     u1787:
  3188  006CE6  2EE8               	decfsz	wreg,f,c
  3189  006CE8  D7FE               	bra	u1787
  3190  006CEA  D000               	nop2	
  3191  006CEC                     
  3192                           ;LCD_lib.c: 35:     LCD_Comando(0x08);
  3193  006CEC  0E08               	movlw	8
  3194  006CEE  EC18  F036         	call	_LCD_Comando
  3195  006CF2                     
  3196                           ;LCD_lib.c: 36:     _delay((unsigned long)((100)*(20000000/4000000.0)));
  3197  006CF2  0EA6               	movlw	166
  3198  006CF4                     u1797:
  3199  006CF4  2EE8               	decfsz	wreg,f,c
  3200  006CF6  D7FE               	bra	u1797
  3201  006CF8  D000               	nop2	
  3202  006CFA                     
  3203                           ;LCD_lib.c: 37:     LCD_Comando(0x0f);
  3204  006CFA  0E0F               	movlw	15
  3205  006CFC  EC18  F036         	call	_LCD_Comando
  3206  006D00                     
  3207                           ;LCD_lib.c: 38:     _delay((unsigned long)((100)*(20000000/4000000.0)));
  3208  006D00  0EA6               	movlw	166
  3209  006D02                     u1807:
  3210  006D02  2EE8               	decfsz	wreg,f,c
  3211  006D04  D7FE               	bra	u1807
  3212  006D06  D000               	nop2	
  3213  006D08                     
  3214                           ;LCD_lib.c: 39:     LCD_Comando(0x01);
  3215  006D08  0E01               	movlw	1
  3216  006D0A  EC18  F036         	call	_LCD_Comando
  3217  006D0E                     
  3218                           ;LCD_lib.c: 40:     _delay((unsigned long)((100)*(20000000/4000000.0)));
  3219  006D0E  0EA6               	movlw	166
  3220  006D10                     u1817:
  3221  006D10  2EE8               	decfsz	wreg,f,c
  3222  006D12  D7FE               	bra	u1817
  3223  006D14  D000               	nop2	
  3224  006D16                     
  3225                           ;LCD_lib.c: 41:     LCD_Comando(0x04);
  3226  006D16  0E04               	movlw	4
  3227  006D18  EC18  F036         	call	_LCD_Comando
  3228  006D1C                     
  3229                           ;LCD_lib.c: 42:     _delay((unsigned long)((100)*(20000000/4000000.0)));
  3230  006D1C  0EA6               	movlw	166
  3231  006D1E                     u1827:
  3232  006D1E  2EE8               	decfsz	wreg,f,c
  3233  006D20  D7FE               	bra	u1827
  3234  006D22  D000               	nop2	
  3235  006D24                     
  3236                           ;LCD_lib.c: 44:     _delay((unsigned long)((100)*(20000000/4000000.0)));
  3237  006D24  0EA6               	movlw	166
  3238  006D26                     u1837:
  3239  006D26  2EE8               	decfsz	wreg,f,c
  3240  006D28  D7FE               	bra	u1837
  3241  006D2A  D000               	nop2	
  3242  006D2C                     
  3243                           ;LCD_lib.c: 45:     LCD_Comando(0x06);
  3244  006D2C  0E06               	movlw	6
  3245  006D2E  EC18  F036         	call	_LCD_Comando
  3246  006D32                     
  3247                           ;LCD_lib.c: 46:     LCD_Comando(0x0C);
  3248  006D32  0E0C               	movlw	12
  3249  006D34  EC18  F036         	call	_LCD_Comando
  3250  006D38  0012               	return		;funcret
  3251  006D3A                     __end_of_LCD_Init:
  3252                           	callstack 0
  3253                           
  3254 ;; *************** function _LCD_Comando *****************
  3255 ;; Defined at:
  3256 ;;		line 51 in file "LCD_lib.c"
  3257 ;; Parameters:    Size  Location     Type
  3258 ;;  cmd             1    wreg     unsigned char 
  3259 ;; Auto vars:     Size  Location     Type
  3260 ;;  cmd             1    0[COMRAM] unsigned char 
  3261 ;; Return value:  Size  Location     Type
  3262 ;;                  1    wreg      void 
  3263 ;; Registers used:
  3264 ;;		wreg, status,2, status,0
  3265 ;; Tracked objects:
  3266 ;;		On entry : 0/0
  3267 ;;		On exit  : 0/0
  3268 ;;		Unchanged: 0/0
  3269 ;; Data sizes:     COMRAM   BANK0   BANK1   BANK2   BANK3   BANK4   BANK5   BANK6   BANK7
  3270 ;;      Params:         0       0       0       0       0       0       0       0       0
  3271 ;;      Locals:         1       0       0       0       0       0       0       0       0
  3272 ;;      Temps:          0       0       0       0       0       0       0       0       0
  3273 ;;      Totals:         1       0       0       0       0       0       0       0       0
  3274 ;;Total ram usage:        1 bytes
  3275 ;; Hardware stack levels used: 1
  3276 ;; This function calls:
  3277 ;;		Nothing
  3278 ;; This function is called by:
  3279 ;;		_LCD_Init
  3280 ;;		_LCD_XY
  3281 ;; This function uses a non-reentrant model
  3282 ;;
  3283                           
  3284                           	psect	text11
  3285  006C30                     __ptext11:
  3286                           	callstack 0
  3287  006C30                     _LCD_Comando:
  3288                           	callstack 29
  3289                           
  3290                           ;incstack = 0
  3291                           ;LCD_Comando@cmd stored from wreg
  3292  006C30  6E01               	movwf	LCD_Comando@cmd^0,c
  3293  006C32                     
  3294                           ;LCD_lib.c: 53:     PORTD &= 0xf0;
  3295  006C32  0EF0               	movlw	240
  3296  006C34  1683               	andwf	131,f,c	;volatile
  3297                           
  3298                           ;LCD_lib.c: 54:     TRISD &= 0xf0;
  3299  006C36  0EF0               	movlw	240
  3300  006C38  1695               	andwf	149,f,c	;volatile
  3301                           
  3302                           ;LCD_lib.c: 57:     PORTD = PORTD | ((cmd>>4)&0x0f);
  3303  006C3A  3801               	swapf	LCD_Comando@cmd^0,w,c
  3304  006C3C  0B0F               	andlw	15
  3305  006C3E  0B0F               	andlw	15
  3306  006C40  1083               	iorwf	131,w,c	;volatile
  3307  006C42  6E83               	movwf	131,c	;volatile
  3308  006C44                     
  3309                           ;LCD_lib.c: 65:     LATDbits.LATD6 = 0;
  3310  006C44  9C8C               	bcf	140,6,c	;volatile
  3311  006C46                     
  3312                           ;LCD_lib.c: 66:     LATDbits.LATD5 = 0;
  3313  006C46  9A8C               	bcf	140,5,c	;volatile
  3314  006C48                     
  3315                           ;LCD_lib.c: 67:     _delay((unsigned long)((5)*(20000000/4000000.0)));
  3316  006C48  0E08               	movlw	8
  3317  006C4A                     u1847:
  3318  006C4A  2EE8               	decfsz	wreg,f,c
  3319  006C4C  D7FE               	bra	u1847
  3320  006C4E  F000               	nop	
  3321  006C50                     
  3322                           ;LCD_lib.c: 68:     LATDbits.LATD4 = 1;
  3323  006C50  888C               	bsf	140,4,c	;volatile
  3324  006C52                     
  3325                           ;LCD_lib.c: 69:     _delay((unsigned long)((5)*(20000000/4000000.0)));
  3326  006C52  0E08               	movlw	8
  3327  006C54                     u1857:
  3328  006C54  2EE8               	decfsz	wreg,f,c
  3329  006C56  D7FE               	bra	u1857
  3330  006C58  F000               	nop	
  3331  006C5A                     
  3332                           ;LCD_lib.c: 70:     LATDbits.LATD4 = 0;
  3333  006C5A  988C               	bcf	140,4,c	;volatile
  3334                           
  3335                           ;LCD_lib.c: 73:     PORTD &= 0xf0;
  3336  006C5C  0EF0               	movlw	240
  3337  006C5E  1683               	andwf	131,f,c	;volatile
  3338                           
  3339                           ;LCD_lib.c: 74:     PORTD |= cmd&0x0f;
  3340  006C60  5001               	movf	LCD_Comando@cmd^0,w,c
  3341  006C62  0B0F               	andlw	15
  3342  006C64  1283               	iorwf	131,f,c	;volatile
  3343  006C66                     
  3344                           ;LCD_lib.c: 75:     _delay((unsigned long)((5)*(20000000/4000000.0)));
  3345  006C66  0E08               	movlw	8
  3346  006C68                     u1867:
  3347  006C68  2EE8               	decfsz	wreg,f,c
  3348  006C6A  D7FE               	bra	u1867
  3349  006C6C  F000               	nop	
  3350  006C6E                     
  3351                           ;LCD_lib.c: 76:     LATDbits.LATD4 = 1;
  3352  006C6E  888C               	bsf	140,4,c	;volatile
  3353  006C70                     
  3354                           ;LCD_lib.c: 77:     _delay((unsigned long)((5)*(20000000/4000000.0)));
  3355  006C70  0E08               	movlw	8
  3356  006C72                     u1877:
  3357  006C72  2EE8               	decfsz	wreg,f,c
  3358  006C74  D7FE               	bra	u1877
  3359  006C76  F000               	nop	
  3360  006C78                     
  3361                           ;LCD_lib.c: 78:     LATDbits.LATD4 = 0;
  3362  006C78  988C               	bcf	140,4,c	;volatile
  3363                           
  3364                           ;LCD_lib.c: 80:     TRISD |= 0x0f;
  3365  006C7A  0E0F               	movlw	15
  3366  006C7C  1295               	iorwf	149,f,c	;volatile
  3367  006C7E  0012               	return		;funcret
  3368  006C80                     __end_of_LCD_Comando:
  3369                           	callstack 0
  3370  0000                     
  3371                           	psect	rparam
  3372  0000                     
  3373                           	psect	idloc
  3374                           
  3375                           ;Config register IDLOC0 @ 0x200000
  3376                           ;	unspecified, using default values
  3377  200000                     	org	2097152
  3378  200000  FF                 	db	255
  3379                           
  3380                           ;Config register IDLOC1 @ 0x200001
  3381                           ;	unspecified, using default values
  3382  200001                     	org	2097153
  3383  200001  FF                 	db	255
  3384                           
  3385                           ;Config register IDLOC2 @ 0x200002
  3386                           ;	unspecified, using default values
  3387  200002                     	org	2097154
  3388  200002  FF                 	db	255
  3389                           
  3390                           ;Config register IDLOC3 @ 0x200003
  3391                           ;	unspecified, using default values
  3392  200003                     	org	2097155
  3393  200003  FF                 	db	255
  3394                           
  3395                           ;Config register IDLOC4 @ 0x200004
  3396                           ;	unspecified, using default values
  3397  200004                     	org	2097156
  3398  200004  FF                 	db	255
  3399                           
  3400                           ;Config register IDLOC5 @ 0x200005
  3401                           ;	unspecified, using default values
  3402  200005                     	org	2097157
  3403  200005  FF                 	db	255
  3404                           
  3405                           ;Config register IDLOC6 @ 0x200006
  3406                           ;	unspecified, using default values
  3407  200006                     	org	2097158
  3408  200006  FF                 	db	255
  3409                           
  3410                           ;Config register IDLOC7 @ 0x200007
  3411                           ;	unspecified, using default values
  3412  200007                     	org	2097159
  3413  200007  FF                 	db	255
  3414                           
  3415                           	psect	config
  3416                           
  3417                           ;Config register CONFIG1L @ 0x300000
  3418                           ;	PLL Prescaler Selection bits
  3419                           ;	PLLDIV = 5, Divide by 5 (20 MHz oscillator input)
  3420                           ;	System Clock Postscaler Selection bits
  3421                           ;	CPUDIV = OSC1_PLL2, [Primary Oscillator Src: /1][96 MHz PLL Src: /2]
  3422                           ;	USB Clock Selection bit (used in Full-Speed USB mode only; UCFG:FSEN = 1)
  3423                           ;	USBDIV = 2, USB clock source comes from the 96 MHz PLL divided by 2
  3424  300000                     	org	3145728
  3425  300000  24                 	db	36
  3426                           
  3427                           ;Config register CONFIG1H @ 0x300001
  3428                           ;	Oscillator Selection bits
  3429                           ;	FOSC = HS, HS oscillator (HS)
  3430                           ;	Fail-Safe Clock Monitor Enable bit
  3431                           ;	FCMEN = OFF, Fail-Safe Clock Monitor disabled
  3432                           ;	Internal/External Oscillator Switchover bit
  3433                           ;	IESO = OFF, Oscillator Switchover mode disabled
  3434  300001                     	org	3145729
  3435  300001  0C                 	db	12
  3436                           
  3437                           ;Config register CONFIG2L @ 0x300002
  3438                           ;	Power-up Timer Enable bit
  3439                           ;	PWRT = OFF, PWRT disabled
  3440                           ;	Brown-out Reset Enable bits
  3441                           ;	BOR = ON, Brown-out Reset enabled in hardware only (SBOREN is disabled)
  3442                           ;	Brown-out Reset Voltage bits
  3443                           ;	BORV = 3, Minimum setting 2.05V
  3444                           ;	USB Voltage Regulator Enable bit
  3445                           ;	VREGEN = OFF, USB voltage regulator disabled
  3446  300002                     	org	3145730
  3447  300002  1F                 	db	31
  3448                           
  3449                           ;Config register CONFIG2H @ 0x300003
  3450                           ;	Watchdog Timer Enable bit
  3451                           ;	WDT = ON, WDT enabled
  3452                           ;	Watchdog Timer Postscale Select bits
  3453                           ;	WDTPS = 32768, 1:32768
  3454  300003                     	org	3145731
  3455  300003  1F                 	db	31
  3456                           
  3457                           ; Padding undefined space
  3458  300004                     	org	3145732
  3459  300004  FF                 	db	255
  3460                           
  3461                           ;Config register CONFIG3H @ 0x300005
  3462                           ;	CCP2 MUX bit
  3463                           ;	CCP2MX = ON, CCP2 input/output is multiplexed with RC1
  3464                           ;	PORTB A/D Enable bit
  3465                           ;	PBADEN = ON, PORTB<4:0> pins are configured as analog input channels on Reset
  3466                           ;	Low-Power Timer 1 Oscillator Enable bit
  3467                           ;	LPT1OSC = OFF, Timer1 configured for higher power operation
  3468                           ;	MCLR Pin Enable bit
  3469                           ;	MCLRE = ON, MCLR pin enabled; RE3 input pin disabled
  3470  300005                     	org	3145733
  3471  300005  83                 	db	131
  3472                           
  3473                           ;Config register CONFIG4L @ 0x300006
  3474                           ;	Stack Full/Underflow Reset Enable bit
  3475                           ;	STVREN = ON, Stack full/underflow will cause Reset
  3476                           ;	Single-Supply ICSP Enable bit
  3477                           ;	LVP = ON, Single-Supply ICSP enabled
  3478                           ;	Dedicated In-Circuit Debug/Programming Port (ICPORT) Enable bit
  3479                           ;	ICPRT = OFF, ICPORT disabled
  3480                           ;	Extended Instruction Set Enable bit
  3481                           ;	XINST = OFF, Instruction set extension and Indexed Addressing mode disabled (Legacy mo
      +                          de)
  3482                           ;	Background Debugger Enable bit
  3483                           ;	DEBUG = 0x1, unprogrammed default
  3484  300006                     	org	3145734
  3485  300006  85                 	db	133
  3486                           
  3487                           ; Padding undefined space
  3488  300007                     	org	3145735
  3489  300007  FF                 	db	255
  3490                           
  3491                           ;Config register CONFIG5L @ 0x300008
  3492                           ;	Code Protection bit
  3493                           ;	CP0 = OFF, Block 0 (000800-001FFFh) is not code-protected
  3494                           ;	Code Protection bit
  3495                           ;	CP1 = OFF, Block 1 (002000-003FFFh) is not code-protected
  3496                           ;	Code Protection bit
  3497                           ;	CP2 = OFF, Block 2 (004000-005FFFh) is not code-protected
  3498                           ;	Code Protection bit
  3499                           ;	CP3 = OFF, Block 3 (006000-007FFFh) is not code-protected
  3500  300008                     	org	3145736
  3501  300008  0F                 	db	15
  3502                           
  3503                           ;Config register CONFIG5H @ 0x300009
  3504                           ;	Boot Block Code Protection bit
  3505                           ;	CPB = OFF, Boot block (000000-0007FFh) is not code-protected
  3506                           ;	Data EEPROM Code Protection bit
  3507                           ;	CPD = OFF, Data EEPROM is not code-protected
  3508  300009                     	org	3145737
  3509  300009  C0                 	db	192
  3510                           
  3511                           ;Config register CONFIG6L @ 0x30000A
  3512                           ;	Write Protection bit
  3513                           ;	WRT0 = OFF, Block 0 (000800-001FFFh) is not write-protected
  3514                           ;	Write Protection bit
  3515                           ;	WRT1 = OFF, Block 1 (002000-003FFFh) is not write-protected
  3516                           ;	Write Protection bit
  3517                           ;	WRT2 = OFF, Block 2 (004000-005FFFh) is not write-protected
  3518                           ;	Write Protection bit
  3519                           ;	WRT3 = OFF, Block 3 (006000-007FFFh) is not write-protected
  3520  30000A                     	org	3145738
  3521  30000A  0F                 	db	15
  3522                           
  3523                           ;Config register CONFIG6H @ 0x30000B
  3524                           ;	Configuration Register Write Protection bit
  3525                           ;	WRTC = OFF, Configuration registers (300000-3000FFh) are not write-protected
  3526                           ;	Boot Block Write Protection bit
  3527                           ;	WRTB = OFF, Boot block (000000-0007FFh) is not write-protected
  3528                           ;	Data EEPROM Write Protection bit
  3529                           ;	WRTD = OFF, Data EEPROM is not write-protected
  3530  30000B                     	org	3145739
  3531  30000B  E0                 	db	224
  3532                           
  3533                           ;Config register CONFIG7L @ 0x30000C
  3534                           ;	Table Read Protection bit
  3535                           ;	EBTR0 = OFF, Block 0 (000800-001FFFh) is not protected from table reads executed in ot
      +                          her blocks
  3536                           ;	Table Read Protection bit
  3537                           ;	EBTR1 = OFF, Block 1 (002000-003FFFh) is not protected from table reads executed in ot
      +                          her blocks
  3538                           ;	Table Read Protection bit
  3539                           ;	EBTR2 = OFF, Block 2 (004000-005FFFh) is not protected from table reads executed in ot
      +                          her blocks
  3540                           ;	Table Read Protection bit
  3541                           ;	EBTR3 = OFF, Block 3 (006000-007FFFh) is not protected from table reads executed in ot
      +                          her blocks
  3542  30000C                     	org	3145740
  3543  30000C  0F                 	db	15
  3544                           
  3545                           ;Config register CONFIG7H @ 0x30000D
  3546                           ;	Boot Block Table Read Protection bit
  3547                           ;	EBTRB = OFF, Boot block (000000-0007FFh) is not protected from table reads executed in
      +                           other blocks
  3548  30000D                     	org	3145741
  3549  30000D  40                 	db	64
  3550                           tosu	equ	0xFFF
  3551                           tosh	equ	0xFFE
  3552                           tosl	equ	0xFFD
  3553                           stkptr	equ	0xFFC
  3554                           pclatu	equ	0xFFB
  3555                           pclath	equ	0xFFA
  3556                           pcl	equ	0xFF9
  3557                           tblptru	equ	0xFF8
  3558                           tblptrh	equ	0xFF7
  3559                           tblptrl	equ	0xFF6
  3560                           tablat	equ	0xFF5
  3561                           prodh	equ	0xFF4
  3562                           prodl	equ	0xFF3
  3563                           indf0	equ	0xFEF
  3564                           postinc0	equ	0xFEE
  3565                           postdec0	equ	0xFED
  3566                           preinc0	equ	0xFEC
  3567                           plusw0	equ	0xFEB
  3568                           fsr0h	equ	0xFEA
  3569                           fsr0l	equ	0xFE9
  3570                           wreg	equ	0xFE8
  3571                           indf1	equ	0xFE7
  3572                           postinc1	equ	0xFE6
  3573                           postdec1	equ	0xFE5
  3574                           preinc1	equ	0xFE4
  3575                           plusw1	equ	0xFE3
  3576                           fsr1h	equ	0xFE2
  3577                           fsr1l	equ	0xFE1
  3578                           bsr	equ	0xFE0
  3579                           indf2	equ	0xFDF
  3580                           postinc2	equ	0xFDE
  3581                           postdec2	equ	0xFDD
  3582                           preinc2	equ	0xFDC
  3583                           plusw2	equ	0xFDB
  3584                           fsr2h	equ	0xFDA
  3585                           fsr2l	equ	0xFD9
  3586                           status	equ	0xFD8

Data Sizes:
    Strings     0
    Constant    0
    Data        4
    BSS         14
    Persistent  0
    Stack       0

Auto Spaces:
    Space          Size  Autos    Used
    COMRAM           95     60      78
    BANK0           160      0       0
    BANK1           256      0       0
    BANK2           256      0       0
    BANK3           256      0       0
    BANK4           256      0       0
    BANK5           256      0       0
    BANK6           256      0       0
    BANK7           256      0       0

Pointer List with Targets:

    None.

Critical Paths under _main in COMRAM

    _sw->_silencio
    _sw->_tocar_nota
    _tocar_nota->___fltol
    _silencio->___fltol
    ___fltol->___fldiv
    ___flsub->___fldiv
    ___fldiv->___xxtofl
    _LCD_Init->_LCD_Comando

Critical Paths under _main in BANK0

    None.

Critical Paths under _main in BANK1

    None.

Critical Paths under _main in BANK2

    None.

Critical Paths under _main in BANK3

    None.

Critical Paths under _main in BANK4

    None.

Critical Paths under _main in BANK5

    None.

Critical Paths under _main in BANK6

    None.

Critical Paths under _main in BANK7

    None.

Call Graph Tables:

 ---------------------------------------------------------------------------------
 (Depth) Function   	        Calls       Base Space   Used Autos Params    Refs
 ---------------------------------------------------------------------------------
 (0) _main                                                 0     0      0   19142
                           _LCD_Init
                             _confT0
                                 _sw
 ---------------------------------------------------------------------------------
 (1) _sw                                                   0     0      0   19112
                           _silencio
                         _tocar_nota
 ---------------------------------------------------------------------------------
 (2) _tocar_nota                                          11     5      6   12596
                                             49 COMRAM    11     5      6
                            ___fldiv
                            ___flsub
                            ___fltol
                           ___xxtofl
 ---------------------------------------------------------------------------------
 (2) _silencio                                            11     5      6    6516
                                             49 COMRAM    11     5      6
                            ___fldiv
                            ___flsub
                            ___fltol
                           ___xxtofl
 ---------------------------------------------------------------------------------
 (3) ___xxtofl                                            14    10      4     474
                                              0 COMRAM    14    10      4
 ---------------------------------------------------------------------------------
 (3) ___fltol                                             10     6      4     685
                                             39 COMRAM    10     6      4
                            ___fldiv (ARG)
                           ___xxtofl (ARG)
 ---------------------------------------------------------------------------------
 (3) ___flsub                                              8     0      8    2737
                                             39 COMRAM     8     0      8
                            ___fladd
                            ___fldiv (ARG)
 ---------------------------------------------------------------------------------
 (4) ___fladd                                             16     8      8    2262
                                              0 COMRAM    16     8      8
 ---------------------------------------------------------------------------------
 (3) ___fldiv                                             25    17      8    2159
                                             14 COMRAM    25    17      8
                           ___xxtofl (ARG)
 ---------------------------------------------------------------------------------
 (1) _confT0                                               0     0      0       0
 ---------------------------------------------------------------------------------
 (1) _LCD_Init                                             1     1      0      30
                                              1 COMRAM     1     1      0
                        _LCD_Comando
 ---------------------------------------------------------------------------------
 (2) _LCD_Comando                                          1     1      0      30
                                              0 COMRAM     1     1      0
 ---------------------------------------------------------------------------------
 Estimated maximum stack depth 4
 ---------------------------------------------------------------------------------

 Call Graph Graphs:

 _main (ROOT)
   _LCD_Init
     _LCD_Comando
   _confT0
   _sw
     _silencio
       ___fldiv
         ___xxtofl (ARG)
       ___flsub
         ___fladd
         ___fldiv (ARG)
       ___fltol
         ___fldiv (ARG)
         ___xxtofl (ARG)
       ___xxtofl
     _tocar_nota
       ___fldiv
       ___flsub
       ___fltol
       ___xxtofl

 Address spaces:
Name               Size   Autos  Total    Cost      Usage
BIGRAM             7FF      0       0      21        0.0%
EEDATA             100      0       0       0        0.0%
BITBANK7           100      0       0      18        0.0%
BANK7              100      0       0      19        0.0%
BITBANK6           100      0       0      16        0.0%
BANK6              100      0       0      17        0.0%
BITBANK5           100      0       0      14        0.0%
BANK5              100      0       0      15        0.0%
BITBANK4           100      0       0      12        0.0%
BANK4              100      0       0      13        0.0%
BITBANK3           100      0       0      10        0.0%
BANK3              100      0       0      11        0.0%
BITBANK2           100      0       0       8        0.0%
BANK2              100      0       0       9        0.0%
BITBANK1           100      0       0       6        0.0%
BANK1              100      0       0       7        0.0%
BITBANK0            A0      0       0       4        0.0%
BANK0               A0      0       0       5        0.0%
BITCOMRAM           5F      0       0       0        0.0%
COMRAM              5F     3C      4E       1       82.1%
BITSFR               0      0       0     200        0.0%
SFR                  0      0       0     200        0.0%
STACK                0      0       0       2        0.0%
NULL                 0      0       0       0        0.0%
ABS                  0      0      4E      20        0.0%
DATA                 0      0      4E       3        0.0%
CODE                 0      0       0       0        0.0%


Microchip Technology PIC18 Macro Assembler V2.32 build 20210201212658 
Symbol Table                                                                                   Tue Oct 05 00:13:07 2021

           ___fldiv@aexp 0027             ___fldiv@bexp 0026                        _a 0049  
                      _b 0047                        _s 0045             ___fldiv@sign 001F  
           ?_LCD_Comando 0001                       l20 6C7E                       l17 6D38  
                     l70 711E                       l62 70A0                       l63 70BE  
                     l80 6F8A                       l65 70CC                       l82 6FAE  
                     l74 6F30                       l66 70EC                       l75 6F4E  
                     l68 70FA                       l85 6B9A                       l77 6F5C  
                     l78 6F7C                       l88 7FFE                       _sw 7B2E  
                    ?_sw 0001                      l627 785C                      l644 7976  
                    l636 7B2C                      l628 784A                      l396 6E3E  
                    l653 7A46                      l629 7810                      l654 7A34  
                    l681 766C                      l761 720E                      l754 7176  
                    l683 74CC                      l692 7512                      l669 6C2E  
                    l757 72D2                      l694 758A                      l686 7490  
                    l695 7578                      l768 726A                      u900 76AA  
                    u901 76A6                      u910 76EC                      u911 76E8  
                    u920 7702                      u921 76FE                      u930 7714  
                    u931 7710                      u940 7724                      u941 7720  
                    u950 7760                      u951 775C                      u960 776E  
                    u880 7688                      u961 776A                      u881 7684  
                    u970 77DC                      u890 769A                      u971 77D8  
                    u891 7696                      u980 77F4                      u981 77EE  
                    u990 77F6                      wreg 000FE8                     ??_sw 003D  
           ___fltol@exp1 0031                     l1210 6C44                     l1220 6C5A  
                   l1212 6C46                     l1300 6D0E                     l1222 6C66  
                   l1214 6C48                     l1310 6D32                     l1302 6D16  
                   l1224 6C6E                     l1216 6C50                     l1208 6C32  
                   l1304 6D1C                     l1400 76D4                     l1226 6C70  
                   l1218 6C52                     l1306 6D24                     l1314 6B86  
                   l1410 7702                     l1402 76DA                     l1228 6C78  
                   l1308 6D2C                     l1260 6C8C                     l1316 6B90  
                   l1500 78D8                     l1420 7736                     l1412 7704  
                   l1404 76EC                     l1270 6C96                     l1262 6C8E  
                   l1318 6B98                     l1510 7944                     l1502 78DA  
                   l1430 7772                     l1414 7714                     l1422 773E  
                   l1406 76EE                     l1280 6CC8                     l1272 6CA4  
                   l1264 6C90                     l1256 6C80                     l1600 732A  
                   l1520 799C                     l1512 7946                     l1504 78E4  
                   l1440 7786                     l1432 7776                     l1424 774E  
                   l1416 7724                     l1408 76F4                     l1290 6CEC  
                   l1282 6CCE                     l1274 6CAA                     l1266 6C92  
                   l1258 6C8A                     l1610 7356                     l1602 733A  
                   l1530 79CA                     l1514 7956                     l1506 78EA  
                   l1450 779A                     l1442 778A                     l1434 777A  
                   l1426 7760                     l1418 7734                     l1292 6CF2  
                   l1284 6CD6                     l1276 6CBA                     l1268 6C94  
                   l1700 75FC                     l1612 7366                     l1620 7390  
                   l1604 7340                     l1532 79D8                     l1524 79B0  
                   l1540 79F6                     l1508 7910                     l1516 7966  
                   l1452 779E                     l1444 778E                     l1436 777E  
                   l1428 776E                     l1460 77AE                     l1294 6CFA  
                   l1286 6CDE                     l1278 6CC0                     l1710 765A  
                   l1702 7612                     l1630 73D2                     l1622 73A0  
                   l1614 7376                     l1606 7346                     l1534 79E0  
                   l1526 79BA                     l1518 798C                     l1542 7A04  
                   l1470 781E                     l1462 77B2                     l1454 77A2  
                   l1446 7792                     l1438 7782                     l1390 769A  
                   l1382 766E                     l1296 6D00                     l1288 6CE4  
                   l1712 7660                     l1704 762C                     l1624 73B6  
                   l1616 7386                     l1608 7354                     l1552 7A56  
                   l1560 7AAC                     l1544 7A08                     l1536 79E4  
                   l1528 79C8                     l1480 7848                     l1472 782A  
                   l1464 77DC                     l1456 77A6                     l1448 7796  
                   l1392 76AA                     l1384 767A                     l1800 725A  
                   l1298 6D08                     l1714 7662                     l1706 7648  
                   l1650 7454                     l1642 740A                     l1626 73C6  
                   l1634 73E6                     l1618 7388                     l1570 7AFE  
                   l1562 7ABC                     l1554 7A62                     l1546 7A16  
                   l1538 79F4                     l1490 789E                     l1482 786A  
                   l1474 782E                     l1466 77F8                     l1458 77AA  
                   l1394 76BA                     l1386 7688                     l1722 6BEA  
                   l1730 6D50                     l1810 72B2                     l1802 7278  
                   l1708 764C                     l1660 749A                     l1652 745C  
                   l1644 7424                     l1636 73F6                     l1628 73CE  
                   l1580 7B1C                     l1572 7B04                     l1564 7ACC  
                   l1556 7A70                     l1548 7A2C                     l1492 78AC  
                   l1484 787A                     l1476 783C                     l1468 7808  
                   l1396 76BC                     l1388 768A                     l1724 6BFA  
                   l1740 6DA0                     l1812 72C0                     l1804 727A  
                   l1820 7094                     l1670 74F2                     l1662 74B8  
                   l1654 746C                     l1646 7434                     l1638 73F6  
                   l1590 72F0                     l1574 7B06                     l1566 7AEC  
                   l1558 7AAA                     l1494 78BA                     l1478 783E  
                   l1398 76C4                     l1750 6DCA                     l1742 6DA4  
                   l1734 6D64                     l1814 72C2                     l1806 727E  
                   l1830 6E40                     l1822 70A2                     l1680 7530  
                   l1672 74F8                     l1664 74BA                     l1656 7480  
                   l1648 7444                     l1592 7300                     l1584 72D4  
                   l1576 7B0C                     l1568 7AF0                     l1496 78C6  
                   l1488 788E                     l1760 6DF2                     l1752 6DD4  
                   l1744 6DB2                     l1736 6D8E                     l1728 6D3A  
                   l1808 72A2                     l1840 6F90                     l1832 6F24  
                   l1824 70D0                     l1690 759A                     l1682 7534  
                   l1674 7502                     l1666 74CA                     l1658 748E  
                   l1594 7310                     l1586 72E0                     l1578 7B1A  
                   l1498 78CA                     l1762 6DFE                     l1754 6DDE  
                   l1738 6D90                     l1834 6F32                     l1826 70FC  
                   l1818 6FB0                     l1842 7B2E                     l1850 6BAC  
                   l1692 75A6                     l1684 7542                     l1676 7510  
                   l1668 74DC                     l1596 7320                     l1588 72EE  
                   l1764 6E0E                     l1780 719C                     l1772 7122  
                   l1836 6F60                     l1828 7100                     l1844 6B9C  
                   l1694 75B4                     l1686 7570                     l1678 7522  
                   l1598 7322                     l1766 6E1E                     l1790 71F6  
                   l1774 7132                     l1838 6F8C                     l1846 6BA4  
                   l1696 75DE                     l1768 6E2E                     l1792 71F8  
                   l1784 71B0                     l1776 7140                     l1848 6BA8  
                   l1698 75E2                     l1794 7204                     l1786 71B8  
                   l1778 7186                     l1796 7240                     l1788 71C4  
                   l1798 724C                     u1000 781E                     u1001 781A  
                   u1010 783C                     u1011 7838                     u1100 798C  
                   u1020 785C                     u1101 7988                     u1021 7858  
                   u1110 799C                     u1030 786A                     u1111 7998  
                   u1031 7866                     u1200 7A70                     u1120 79C8  
                   u1040 787A                     u1201 7A6C                     u1121 79C4  
                   u1041 7876                     u1210 7AAA                     u1130 79D8  
                   u1050 78AC                     u1211 7AA6                     u1131 79D4  
                   u1051 78A8                     u1300 7354                     u1220 7ABC  
                   u1140 79F4                     u1060 78BA                     u1301 7350  
                   u1221 7AB8                     u1141 79F0                     u1061 78B6  
                   u1310 7366                     u1230 7ACC                     u1150 7A04  
                   u1070 78D8                     u1311 7362                     u1231 7AC8  
                   u1151 7A00                     u1071 78D4                     u1400 7510  
                   u1320 7376                     u1240 7AEC                     u1160 7A16  
                   u1080 7910                     u1401 750C                     u1321 7372  
                   u1241 7AE8                     u1161 7A12                     u1081 790C  
                   u1410 7530                     u1330 73B6                     u1250 7AFE  
                   u1170 7A2C                     u1090 7956                     u1411 752C  
                   u1331 73B2                     u1251 7AFA                     u1171 7A28  
                   u1091 7952                     u1420 7542                     u1340 73F6  
                   u1260 7B1A                     u1180 7A42                     u1500 6D50  
                   u1421 753E                     u1341 73F2                     u1261 7B16  
                   u1181 7A3E                     u1501 6D4C                     u1430 7570  
                   u1350 746C                     u1270 72EE                     u1190 7A56  
                   u1510 6D84                     u1431 756C                     u1351 7468  
                   u1271 72EA                     u1191 7A52                     u1440 7586  
                   u1360 748E                     u1280 7300                     u1520 6DB2  
                   u1600 71F2                     u1441 7582                     u1361 748A  
                   u1281 72FC                     u1521 6DAE                     u1601 71EE  
                   u1450 759A                     u1370 74B8                     u1290 7310  
                   u1530 6DC6                     u1610 723C                     u1451 7596  
                   u1371 74B4                     u1291 730C                     u1531 6DC2  
                   u1515 6D7A                     u1611 7238                     u1460 75B4  
                   u1380 74DC                     u1540 6DEE                     u1620 725A  
                   u1700 6F5C                     u1461 75B0                     u1381 74D8  
                   u1541 6DEA                     u1621 7256                     u1701 6F58  
                   u1470 75FC                     u1390 74F2                     u1550 6E0E  
                   u1630 726A                     u1710 6F8A                     u1471 75F8  
                   u1391 74EE                     u1551 6E0A                     u1631 7266  
                   u1711 6F86                     u1480 762C                     u1560 6E1E  
                   u1640 7278                     u1720 6FAE                     u1481 7628  
                   u1561 6E1A                     u1641 7274                     u1721 6FAA  
                   u1490 765A                     u1650 72B2                     u1570 7132  
                   u1491 7656                     u1651 72AE                     u1571 712E  
                   u1660 72C0                     u1580 7140                     u1661 72BC  
                   u1581 713C                     u1590 719C                     u1670 70CC  
                   u1807 6D02                     u1591 7198                     u1671 70C8  
                   u1680 70FA                     u1817 6D10                     u1737 6C9C  
                   u1681 70F6                     u1690 711E                     u1827 6D1E  
                   u1747 6CB0                     u1691 711A                     u1837 6D26  
                   u1757 6CC2                     u1847 6C4A                     u1767 6CD0  
                   u1857 6C54                     u1777 6CD8                     u1867 6C68  
                   u1787 6CE6                     u1877 6C72                     u1797 6CF4  
                   _TMR0 000FD6                     _main 6B9C                     fsr1l 000FE1  
                   start 0000          ___fldiv@new_exp 0020             ___param_bank 000000  
       __end_of_LCD_Init 6D3A            ___fltol@sign1 0030          __end_of___fladd 7B2E  
                  ?_main 0001          __end_of___fldiv 766E          __end_of___flsub 6C30  
        __end_of___fltol 6E40                    _PORTD 000F83                    _TRISA 000F92  
                  _TRISD 000F95                    tablat 000FF5                    status 000FD8  
        __initialization 6BB8             __end_of_main 6BB8                   ??_main 003D  
          __activetblptr 000000                   _ADCON1 000FC1          tocar_nota@tfrec 0034  
       __end_of___xxtofl 72D4                ??___fladd 0009                ??___fldiv 0017  
              ??___flsub 0030                ??___fltol 002C                   _confT0 6B86  
                 clear_0 6BDE                   isa$std 000001     __size_of_LCD_Comando 0050  
           __pdataCOMRAM 004B         __end_of_silencio 6FB0                   tblptrh 000FF7  
                 tblptrl 000FF6                   tblptru 000FF8             ___xxtofl@arg 000B  
           ___xxtofl@exp 000A             ___xxtofl@val 0001               __accesstop 0060  
__end_of__initialization 6BE4                ?_LCD_Init 0001            ___rparam_used 000001  
             ___fltol@f1 0028           __pcstackCOMRAM 0001               __end_of_sw 8000  
             ??_LCD_Init 0002                  ?_confT0 0001                ?___xxtofl 0001  
                __Hparam 0000                  __Lparam 0000                ?_silencio 0032  
                ___fladd 766E                  ___fldiv 72D4                  ___flsub 6BEA  
                ___fltol 6D3A          __size_of_confT0 0016                  __pcinit 6BB8  
                __ramtop 0800                  __ptext0 6B9C                  __ptext1 7B2E  
                __ptext2 6FB0                  __ptext3 6E40                  __ptext4 7120  
                __ptext5 6D3A                  __ptext6 6BEA                  __ptext7 766E  
                __ptext8 72D4                  __ptext9 6B86                  _buffer1 003D  
              _T0CONbits 000FD5               ??___xxtofl 0005       tocar_nota@duracion 0032  
         LCD_Comando@cmd 0001     end_of_initialization 6BE4               ??_silencio 0038  
                postdec1 000FE5                  postinc0 000FEE                _PORTAbits 000F80  
             _tocar_nota 6FB0              ___fladd@grs 0010            ___xxtofl@sign 0009  
              _TRISDbits 000F95              ___fldiv@grs 0022              ___fldiv@rem 001B  
      __size_of_LCD_Init 00BA            ??_LCD_Comando 0001            __pidataCOMRAM 6B82  
         __end_of_confT0 6B9C      start_initialization 6BB8                 ??_confT0 0001  
            ?_tocar_nota 0032                ___fladd@a 0005                ___fladd@b 0001  
              ___fldiv@a 0013                ___fldiv@b 000F      __end_of_LCD_Comando 6C80  
       silencio@duracion 0032              __pbssCOMRAM 003D                ___flsub@a 002C  
              ___flsub@b 0028        __size_of___xxtofl 01B4                 ?___fladd 0001  
               ?___fldiv 000F                 ?___flsub 0028                 ?___fltol 0028  
      __size_of_silencio 0170                _distancia 004B              __size_of_sw 04D2  
               _LCD_Init 6C80                 _LATDbits 000F8C      __size_of_tocar_nota 0170  
            _LCD_Comando 6C30           _tocar_nota$954 0039                copy_data0 6BCC  
               __Hrparam 0000                 __Lrparam 0000         __size_of___fladd 04C0  
       __size_of___fldiv 039A         __size_of___flsub 0046         __size_of___fltol 0106  
               ___xxtofl 7120            silencio@tfrec 0034                 __ptext10 6C80  
               __ptext11 6C30            __size_of_main 001C                 _silencio 6E40  
               isa$xinst 000000             _silencio$955 0039             ??_tocar_nota 0038  
             _INTCONbits 000FF2       __end_of_tocar_nota 7120            ___fladd@signs 000D  
           ___fladd@aexp 000E             ___fladd@bexp 000F  
